---
triple:          'arm64-apple-darwin'
binary-path:     ElevatorSim
relocations:
  - { offsetInCU: 0xD6C9, offset: 0xD6C9, size: 0x8, addend: 0x0, symName: __ZNSt3__124__put_character_sequenceB8ne180100IcNS_11char_traitsIcEEEERNS_13basic_ostreamIT_T0_EES7_PKS4_m, symObjAddr: 0x38DC, symBinAddr: 0x1000069D8, symSize: 0x1EC }
  - { offsetInCU: 0xFFA0, offset: 0xFFA0, size: 0x8, addend: 0x0, symName: __ZNSt3__1lsB8ne180100INS_11char_traitsIcEEEERNS_13basic_ostreamIcT_EES6_PKc, symObjAddr: 0x320, symBinAddr: 0x10000341C, symSize: 0x48 }
  - { offsetInCU: 0xFFE6, offset: 0xFFE6, size: 0x8, addend: 0x0, symName: __ZNSt3__14endlB8ne180100IcNS_11char_traitsIcEEEERNS_13basic_ostreamIT_T0_EES7_, symObjAddr: 0x394, symBinAddr: 0x100003490, symSize: 0x58 }
  - { offsetInCU: 0x103A2, offset: 0x103A2, size: 0x8, addend: 0x0, symName: __ZNSt3__1neB8ne180100IP20ECElevatorSimRequestEEbRKNS_11__wrap_iterIT_EES7_, symObjAddr: 0xAFC, symBinAddr: 0x100003BF8, symSize: 0x34 }
  - { offsetInCU: 0x111F9, offset: 0x111F9, size: 0x8, addend: 0x0, symName: __ZNSt3__1lsB8ne180100IcNS_11char_traitsIcEENS_9allocatorIcEEEERNS_13basic_ostreamIT_T0_EES9_RKNS_12basic_stringIS6_S7_T1_EE, symObjAddr: 0x1FCC, symBinAddr: 0x1000050C8, symSize: 0x4C }
  - { offsetInCU: 0x11251, offset: 0x11251, size: 0x8, addend: 0x0, symName: __ZNSt3__17getlineB8ne180100IcNS_11char_traitsIcEENS_9allocatorIcEEEERNS_13basic_istreamIT_T0_EES9_RNS_12basic_stringIS6_S7_T1_EE, symObjAddr: 0x2044, symBinAddr: 0x100005140, symSize: 0x5C }
  - { offsetInCU: 0x113DE, offset: 0x113DE, size: 0x8, addend: 0x0, symName: __ZNSt3__1neB8ne180100IPKNS_12basic_stringIcNS_11char_traitsIcEENS_9allocatorIcEEEEEEbRKNS_11__wrap_iterIT_EESD_, symObjAddr: 0x23A4, symBinAddr: 0x1000054A0, symSize: 0x34 }
  - { offsetInCU: 0x1142C, offset: 0x1142C, size: 0x8, addend: 0x0, symName: __ZNSt3__1eqB8ne180100IP20ECElevatorSimRequestEEbRKNS_11__wrap_iterIT_EES7_, symObjAddr: 0x2628, symBinAddr: 0x100005724, symSize: 0x48 }
  - { offsetInCU: 0x1146F, offset: 0x1146F, size: 0x8, addend: 0x0, symName: __ZNSt3__1eqB8ne180100IPKNS_12basic_stringIcNS_11char_traitsIcEENS_9allocatorIcEEEEEEbRKNS_11__wrap_iterIT_EESD_, symObjAddr: 0x28AC, symBinAddr: 0x1000059A8, symSize: 0x48 }
  - { offsetInCU: 0x114B2, offset: 0x114B2, size: 0x8, addend: 0x0, symName: __ZNSt3__112__to_addressB8ne180100I20ECElevatorSimRequestEEPT_S3_, symObjAddr: 0x2E78, symBinAddr: 0x100005F74, symSize: 0x14 }
  - { offsetInCU: 0x114E7, offset: 0x114E7, size: 0x8, addend: 0x0, symName: __ZNSt3__119__libcpp_deallocateB8ne180100EPvmm, symObjAddr: 0x2EE4, symBinAddr: 0x100005FE0, symSize: 0x60 }
  - { offsetInCU: 0x1154C, offset: 0x1154C, size: 0x8, addend: 0x0, symName: __ZNSt3__124__is_overaligned_for_newB8ne180100Em, symObjAddr: 0x2F44, symBinAddr: 0x100006040, symSize: 0x20 }
  - { offsetInCU: 0x1157A, offset: 0x1157A, size: 0x8, addend: 0x0, symName: __ZNSt3__127__do_deallocate_handle_sizeB8ne180100IJSt11align_val_tEEEvPvmDpT_, symObjAddr: 0x2F64, symBinAddr: 0x100006060, symSize: 0x30 }
  - { offsetInCU: 0x115CD, offset: 0x115CD, size: 0x8, addend: 0x0, symName: __ZNSt3__127__do_deallocate_handle_sizeB8ne180100IJEEEvPvmDpT_, symObjAddr: 0x2F94, symBinAddr: 0x100006090, symSize: 0x28 }
  - { offsetInCU: 0x1160B, offset: 0x1160B, size: 0x8, addend: 0x0, symName: __ZNSt3__124__libcpp_operator_deleteB8ne180100IJPvSt11align_val_tEEEvDpT_, symObjAddr: 0x2FBC, symBinAddr: 0x1000060B8, symSize: 0x2C }
  - { offsetInCU: 0x11654, offset: 0x11654, size: 0x8, addend: 0x0, symName: __ZNSt3__124__libcpp_operator_deleteB8ne180100IJPvEEEvDpT_, symObjAddr: 0x2FE8, symBinAddr: 0x1000060E4, symSize: 0x24 }
  - { offsetInCU: 0x11689, offset: 0x11689, size: 0x8, addend: 0x0, symName: __ZNSt3__112__to_addressB8ne180100INS_12basic_stringIcNS_11char_traitsIcEENS_9allocatorIcEEEEEEPT_S8_, symObjAddr: 0x37C4, symBinAddr: 0x1000068C0, symSize: 0x14 }
  - { offsetInCU: 0x116BE, offset: 0x116BE, size: 0x8, addend: 0x0, symName: __ZNSt3__116__pad_and_outputB8ne180100IcNS_11char_traitsIcEEEENS_19ostreambuf_iteratorIT_T0_EES6_PKS4_S8_S8_RNS_8ios_baseES4_, symObjAddr: 0x3B18, symBinAddr: 0x100006C14, symSize: 0x240 }
  - { offsetInCU: 0x1178D, offset: 0x1178D, size: 0x8, addend: 0x0, symName: __ZNSt3__112__to_addressB8ne180100IcEEPT_S2_, symObjAddr: 0x4014, symBinAddr: 0x100007110, symSize: 0x14 }
  - { offsetInCU: 0x117F5, offset: 0x117F5, size: 0x8, addend: 0x0, symName: __ZNSt3__19use_facetB8ne180100INS_5ctypeIcEEEERKT_RKNS_6localeE, symObjAddr: 0x42CC, symBinAddr: 0x1000073C8, symSize: 0x2C }
  - { offsetInCU: 0x11CC2, offset: 0x11CC2, size: 0x8, addend: 0x0, symName: __ZNSt3__118__constexpr_strlenB8ne180100EPKc, symObjAddr: 0x4364, symBinAddr: 0x100007460, symSize: 0x24 }
  - { offsetInCU: 0x11CEE, offset: 0x11CEE, size: 0x8, addend: 0x0, symName: __ZNSt3__13maxB8ne180100ImEERKT_S3_S3_, symObjAddr: 0x4D80, symBinAddr: 0x100007E7C, symSize: 0x2C }
  - { offsetInCU: 0x11D31, offset: 0x11D31, size: 0x8, addend: 0x0, symName: __ZNSt3__13minB8ne180100ImEERKT_S3_S3_, symObjAddr: 0x4DAC, symBinAddr: 0x100007EA8, symSize: 0x2C }
  - { offsetInCU: 0x11F5E, offset: 0x11F5E, size: 0x8, addend: 0x0, symName: __ZNSt3__13minB8ne180100ImNS_6__lessIvvEEEERKT_S5_S5_T0_, symObjAddr: 0x4E38, symBinAddr: 0x100007F34, symSize: 0x54 }
  - { offsetInCU: 0x11FFD, offset: 0x11FFD, size: 0x8, addend: 0x0, symName: __ZNSt3__120__throw_length_errorB8ne180100EPKc, symObjAddr: 0x4F18, symBinAddr: 0x100008014, symSize: 0x64 }
  - { offsetInCU: 0x12025, offset: 0x12025, size: 0x8, addend: 0x0, symName: __ZNSt3__13maxB8ne180100ImNS_6__lessIvvEEEERKT_S5_S5_T0_, symObjAddr: 0x4FFC, symBinAddr: 0x1000080F8, symSize: 0x54 }
  - { offsetInCU: 0x1207F, offset: 0x1207F, size: 0x8, addend: 0x0, symName: __ZNSt3__119__allocate_at_leastB8ne180100INS_9allocatorINS_12basic_stringIcNS_11char_traitsIcEENS1_IcEEEEEEEENS_19__allocation_resultINS_16allocator_traitsIT_E7pointerEEERSA_m, symObjAddr: 0x516C, symBinAddr: 0x100008268, symSize: 0x40 }
  - { offsetInCU: 0x120C2, offset: 0x120C2, size: 0x8, addend: 0x0, symName: __ZNSt3__117__libcpp_allocateB8ne180100Emm, symObjAddr: 0x52F4, symBinAddr: 0x1000083F0, symSize: 0x60 }
  - { offsetInCU: 0x1211C, offset: 0x1211C, size: 0x8, addend: 0x0, symName: __ZNSt3__121__libcpp_operator_newB8ne180100IJmSt11align_val_tEEEPvDpT_, symObjAddr: 0x5354, symBinAddr: 0x100008450, symSize: 0x2C }
  - { offsetInCU: 0x12169, offset: 0x12169, size: 0x8, addend: 0x0, symName: __ZNSt3__121__libcpp_operator_newB8ne180100IJmEEEPvDpT_, symObjAddr: 0x5380, symBinAddr: 0x10000847C, symSize: 0x24 }
  - { offsetInCU: 0x121A2, offset: 0x121A2, size: 0x8, addend: 0x0, symName: __ZNSt3__142__uninitialized_allocator_move_if_noexceptB8ne180100INS_9allocatorINS_12basic_stringIcNS_11char_traitsIcEENS1_IcEEEEEENS_16reverse_iteratorIPS6_EESA_SA_EET2_RT_T0_T1_SB_, symObjAddr: 0x5408, symBinAddr: 0x100008504, symSize: 0x12C }
  - { offsetInCU: 0x12242, offset: 0x12242, size: 0x8, addend: 0x0, symName: __ZNSt3__14swapB8ne180100IPNS_12basic_stringIcNS_11char_traitsIcEENS_9allocatorIcEEEEEENS_9enable_ifIXaasr21is_move_constructibleIT_EE5valuesr18is_move_assignableIS9_EE5valueEvE4typeERS9_SC_, symObjAddr: 0x5580, symBinAddr: 0x10000867C, symSize: 0x3C }
  - { offsetInCU: 0x12293, offset: 0x12293, size: 0x8, addend: 0x0, symName: __ZNSt3__122__make_exception_guardB8ne180100INS_29_AllocatorDestroyRangeReverseINS_9allocatorINS_12basic_stringIcNS_11char_traitsIcEENS2_IcEEEEEENS_16reverse_iteratorIPS7_EEEEEENS_28__exception_guard_exceptionsIT_EESE_, symObjAddr: 0x55D0, symBinAddr: 0x1000086CC, symSize: 0x4C }
  - { offsetInCU: 0x122C9, offset: 0x122C9, size: 0x8, addend: 0x0, symName: __ZNSt3__1neB8ne180100IPNS_12basic_stringIcNS_11char_traitsIcEENS_9allocatorIcEEEES7_EEbRKNS_16reverse_iteratorIT_EERKNS8_IT0_EE, symObjAddr: 0x5660, symBinAddr: 0x10000875C, symSize: 0x48 }
  - { offsetInCU: 0x12315, offset: 0x12315, size: 0x8, addend: 0x0, symName: __ZNSt3__112__to_addressB8ne180100INS_16reverse_iteratorIPNS_12basic_stringIcNS_11char_traitsIcEENS_9allocatorIcEEEEEEvEEu7__decayIDTclsr19__to_address_helperIT_EE6__callclsr3stdE7declvalIRKSA_EEEEESC_, symObjAddr: 0x56A8, symBinAddr: 0x1000087A4, symSize: 0x24 }
  - { offsetInCU: 0x12374, offset: 0x12374, size: 0x8, addend: 0x0, symName: __ZNSt3__119__allocator_destroyB8ne180100INS_9allocatorINS_12basic_stringIcNS_11char_traitsIcEENS1_IcEEEEEENS_16reverse_iteratorINS8_IPS6_EEEESB_EEvRT_T0_T1_, symObjAddr: 0x5958, symBinAddr: 0x100008A54, symSize: 0x70 }
  - { offsetInCU: 0x123D9, offset: 0x123D9, size: 0x8, addend: 0x0, symName: __ZNSt3__1neB8ne180100INS_16reverse_iteratorIPNS_12basic_stringIcNS_11char_traitsIcEENS_9allocatorIcEEEEEES9_EEbRKNS1_IT_EERKNS1_IT0_EE, symObjAddr: 0x5A04, symBinAddr: 0x100008B00, symSize: 0x60 }
  - { offsetInCU: 0x12425, offset: 0x12425, size: 0x8, addend: 0x0, symName: __ZNSt3__112__to_addressB8ne180100INS_16reverse_iteratorINS1_IPNS_12basic_stringIcNS_11char_traitsIcEENS_9allocatorIcEEEEEEEEvEEu7__decayIDTclsr19__to_address_helperIT_EE6__callclsr3stdE7declvalIRKSB_EEEEESD_, symObjAddr: 0x5A64, symBinAddr: 0x100008B60, symSize: 0x24 }
  - { offsetInCU: 0x12484, offset: 0x12484, size: 0x8, addend: 0x0, symName: __ZNSt3__119__allocate_at_leastB8ne180100INS_9allocatorI20ECElevatorSimRequestEEEENS_19__allocation_resultINS_16allocator_traitsIT_E7pointerEEERS6_m, symObjAddr: 0x65C0, symBinAddr: 0x1000096BC, symSize: 0x40 }
  - { offsetInCU: 0x124C7, offset: 0x124C7, size: 0x8, addend: 0x0, symName: __ZNSt3__142__uninitialized_allocator_move_if_noexceptB8ne180100INS_9allocatorI20ECElevatorSimRequestEENS_16reverse_iteratorIPS2_EES6_S6_EET2_RT_T0_T1_S7_, symObjAddr: 0x6778, symBinAddr: 0x100009874, symSize: 0x12C }
  - { offsetInCU: 0x12567, offset: 0x12567, size: 0x8, addend: 0x0, symName: __ZNSt3__14swapB8ne180100IP20ECElevatorSimRequestEENS_9enable_ifIXaasr21is_move_constructibleIT_EE5valuesr18is_move_assignableIS4_EE5valueEvE4typeERS4_S7_, symObjAddr: 0x68F0, symBinAddr: 0x1000099EC, symSize: 0x3C }
  - { offsetInCU: 0x125B8, offset: 0x125B8, size: 0x8, addend: 0x0, symName: __ZNSt3__122__make_exception_guardB8ne180100INS_29_AllocatorDestroyRangeReverseINS_9allocatorI20ECElevatorSimRequestEENS_16reverse_iteratorIPS3_EEEEEENS_28__exception_guard_exceptionsIT_EESA_, symObjAddr: 0x6940, symBinAddr: 0x100009A3C, symSize: 0x4C }
  - { offsetInCU: 0x125EE, offset: 0x125EE, size: 0x8, addend: 0x0, symName: __ZNSt3__1neB8ne180100IP20ECElevatorSimRequestS2_EEbRKNS_16reverse_iteratorIT_EERKNS3_IT0_EE, symObjAddr: 0x69D0, symBinAddr: 0x100009ACC, symSize: 0x48 }
  - { offsetInCU: 0x1263A, offset: 0x1263A, size: 0x8, addend: 0x0, symName: __ZNSt3__112__to_addressB8ne180100INS_16reverse_iteratorIP20ECElevatorSimRequestEEvEEu7__decayIDTclsr19__to_address_helperIT_EE6__callclsr3stdE7declvalIRKS5_EEEEES7_, symObjAddr: 0x6A18, symBinAddr: 0x100009B14, symSize: 0x24 }
  - { offsetInCU: 0x12699, offset: 0x12699, size: 0x8, addend: 0x0, symName: __ZNSt3__119__allocator_destroyB8ne180100INS_9allocatorI20ECElevatorSimRequestEENS_16reverse_iteratorINS4_IPS2_EEEES7_EEvRT_T0_T1_, symObjAddr: 0x6CC8, symBinAddr: 0x100009DC4, symSize: 0x70 }
  - { offsetInCU: 0x126FE, offset: 0x126FE, size: 0x8, addend: 0x0, symName: __ZNSt3__1neB8ne180100INS_16reverse_iteratorIP20ECElevatorSimRequestEES4_EEbRKNS1_IT_EERKNS1_IT0_EE, symObjAddr: 0x6D74, symBinAddr: 0x100009E70, symSize: 0x60 }
  - { offsetInCU: 0x1274A, offset: 0x1274A, size: 0x8, addend: 0x0, symName: __ZNSt3__112__to_addressB8ne180100INS_16reverse_iteratorINS1_IP20ECElevatorSimRequestEEEEvEEu7__decayIDTclsr19__to_address_helperIT_EE6__callclsr3stdE7declvalIRKS6_EEEEES8_, symObjAddr: 0x6DD4, symBinAddr: 0x100009ED0, symSize: 0x24 }
  - { offsetInCU: 0x127A9, offset: 0x127A9, size: 0x8, addend: 0x0, symName: __ZNSt3__112__to_addressB8ne180100IKcEEPT_S3_, symObjAddr: 0x7288, symBinAddr: 0x10000A384, symSize: 0x14 }
  - { offsetInCU: 0x12811, offset: 0x12811, size: 0x8, addend: 0x0, symName: __ZNSt3__17getlineB8ne180100IcNS_11char_traitsIcEENS_9allocatorIcEEEERNS_13basic_istreamIT_T0_EES9_RNS_12basic_stringIS6_S7_T1_EES6_, symObjAddr: 0x73A4, symBinAddr: 0x10000A4A0, symSize: 0x238 }
  - { offsetInCU: 0x13000, offset: 0x13000, size: 0x8, addend: 0x0, symName: __ZSt28__throw_bad_array_new_lengthB8ne180100v, symObjAddr: 0x52C0, symBinAddr: 0x1000083BC, symSize: 0x34 }
  - { offsetInCU: 0x13D97, offset: 0x13D97, size: 0x8, addend: 0x0, symName: __ZNSt3__16vectorINS_12basic_stringIcNS_11char_traitsIcEENS_9allocatorIcEEEENS4_IS6_EEE26__swap_out_circular_bufferERNS_14__split_bufferIS6_RS7_EE, symObjAddr: 0x4BC8, symBinAddr: 0x100007CC4, symSize: 0x110 }
  - { offsetInCU: 0x13E2A, offset: 0x13E2A, size: 0x8, addend: 0x0, symName: __ZNSt3__16vectorI20ECElevatorSimRequestNS_9allocatorIS1_EEE26__swap_out_circular_bufferERNS_14__split_bufferIS1_RS3_EE, symObjAddr: 0x6250, symBinAddr: 0x10000934C, symSize: 0x110 }
  - { offsetInCU: 0x16412, offset: 0x16412, size: 0x8, addend: 0x0, symName: __ZN13ECElevatorSimC2EiRNSt3__16vectorI20ECElevatorSimRequestNS0_9allocatorIS2_EEEE, symObjAddr: 0x0, symBinAddr: 0x1000030FC, symSize: 0xE0 }
  - { offsetInCU: 0x1645A, offset: 0x1645A, size: 0x8, addend: 0x0, symName: __ZNSt3__16vectorINS_12basic_stringIcNS_11char_traitsIcEENS_9allocatorIcEEEENS4_IS6_EEEC1B8ne180100Ev, symObjAddr: 0xE0, symBinAddr: 0x1000031DC, symSize: 0x2C }
  - { offsetInCU: 0x16484, offset: 0x16484, size: 0x8, addend: 0x0, symName: __ZNSt3__16vectorI20ECElevatorSimRequestNS_9allocatorIS1_EEEC1B8ne180100EOS4_, symObjAddr: 0x10C, symBinAddr: 0x100003208, symSize: 0x34 }
  - { offsetInCU: 0x1651B, offset: 0x1651B, size: 0x8, addend: 0x0, symName: __ZN7StoppedC1ER13ECElevatorSim, symObjAddr: 0x140, symBinAddr: 0x10000323C, symSize: 0x34 }
  - { offsetInCU: 0x16553, offset: 0x16553, size: 0x8, addend: 0x0, symName: __ZNSt3__16vectorI20ECElevatorSimRequestNS_9allocatorIS1_EEED1B8ne180100Ev, symObjAddr: 0x174, symBinAddr: 0x100003270, symSize: 0x2C }
  - { offsetInCU: 0x1657D, offset: 0x1657D, size: 0x8, addend: 0x0, symName: __ZNSt3__16vectorINS_12basic_stringIcNS_11char_traitsIcEENS_9allocatorIcEEEENS4_IS6_EEED1B8ne180100Ev, symObjAddr: 0x1A0, symBinAddr: 0x10000329C, symSize: 0x2C }
  - { offsetInCU: 0x165A7, offset: 0x165A7, size: 0x8, addend: 0x0, symName: __ZN13ECElevatorSimC1EiRNSt3__16vectorI20ECElevatorSimRequestNS0_9allocatorIS2_EEEE, symObjAddr: 0x1CC, symBinAddr: 0x1000032C8, symSize: 0x3C }
  - { offsetInCU: 0x165EF, offset: 0x165EF, size: 0x8, addend: 0x0, symName: __ZN13ECElevatorSimD2Ev, symObjAddr: 0x208, symBinAddr: 0x100003304, symSize: 0x74 }
  - { offsetInCU: 0x1661B, offset: 0x1661B, size: 0x8, addend: 0x0, symName: __ZN13ECElevatorSimD1Ev, symObjAddr: 0x27C, symBinAddr: 0x100003378, symSize: 0x2C }
  - { offsetInCU: 0x16647, offset: 0x16647, size: 0x8, addend: 0x0, symName: __ZNK13ECElevatorSim12GetCurrFloorEv, symObjAddr: 0x2A8, symBinAddr: 0x1000033A4, symSize: 0x78 }
  - { offsetInCU: 0x1666F, offset: 0x1666F, size: 0x8, addend: 0x0, symName: __ZNSt3__113basic_ostreamIcNS_11char_traitsIcEEElsB8ne180100EPFRS3_S4_E, symObjAddr: 0x368, symBinAddr: 0x100003464, symSize: 0x2C }
  - { offsetInCU: 0x166A3, offset: 0x166A3, size: 0x8, addend: 0x0, symName: __ZN13ECElevatorSim10SetCurrDirE15EC_ELEVATOR_DIR, symObjAddr: 0x3EC, symBinAddr: 0x1000034E8, symSize: 0x20 }
  - { offsetInCU: 0x166D9, offset: 0x166D9, size: 0x8, addend: 0x0, symName: __ZN13ECElevatorSim12SetCurrFloorEi, symObjAddr: 0x40C, symBinAddr: 0x100003508, symSize: 0x20 }
  - { offsetInCU: 0x1670F, offset: 0x1670F, size: 0x8, addend: 0x0, symName: __ZNK13ECElevatorSim10GetCurrDirEv, symObjAddr: 0x42C, symBinAddr: 0x100003528, symSize: 0x18 }
  - { offsetInCU: 0x16737, offset: 0x16737, size: 0x8, addend: 0x0, symName: __ZN13ECElevatorSim11GetCurrTimeEv, symObjAddr: 0x444, symBinAddr: 0x100003540, symSize: 0x18 }
  - { offsetInCU: 0x1675F, offset: 0x1675F, size: 0x8, addend: 0x0, symName: __ZN7Stopped10onTimeTickEv, symObjAddr: 0x45C, symBinAddr: 0x100003558, symSize: 0x488 }
  - { offsetInCU: 0x16873, offset: 0x16873, size: 0x8, addend: 0x0, symName: __ZN13ElevatorState17getActiveRequestsEv, symObjAddr: 0x8E4, symBinAddr: 0x1000039E0, symSize: 0xCC }
  - { offsetInCU: 0x1693C, offset: 0x1693C, size: 0x8, addend: 0x0, symName: __ZNSt3__119basic_ostringstreamIcNS_11char_traitsIcEENS_9allocatorIcEEEC1B8ne180100Ev, symObjAddr: 0x9B0, symBinAddr: 0x100003AAC, symSize: 0xEC }
  - { offsetInCU: 0x16966, offset: 0x16966, size: 0x8, addend: 0x0, symName: __ZNSt3__16vectorI20ECElevatorSimRequestNS_9allocatorIS1_EEE5beginB8ne180100Ev, symObjAddr: 0xA9C, symBinAddr: 0x100003B98, symSize: 0x30 }
  - { offsetInCU: 0x1698E, offset: 0x1698E, size: 0x8, addend: 0x0, symName: __ZNSt3__16vectorI20ECElevatorSimRequestNS_9allocatorIS1_EEE3endB8ne180100Ev, symObjAddr: 0xACC, symBinAddr: 0x100003BC8, symSize: 0x30 }
  - { offsetInCU: 0x169B6, offset: 0x169B6, size: 0x8, addend: 0x0, symName: __ZNKSt3__111__wrap_iterIP20ECElevatorSimRequestEdeB8ne180100Ev, symObjAddr: 0xB30, symBinAddr: 0x100003C2C, symSize: 0x18 }
  - { offsetInCU: 0x169DC, offset: 0x169DC, size: 0x8, addend: 0x0, symName: __ZNK20ECElevatorSimRequest11GetFloorSrcEv, symObjAddr: 0xB48, symBinAddr: 0x100003C44, symSize: 0x18 }
  - { offsetInCU: 0x16A02, offset: 0x16A02, size: 0x8, addend: 0x0, symName: __ZNK20ECElevatorSimRequest12GetFloorDestEv, symObjAddr: 0xB60, symBinAddr: 0x100003C5C, symSize: 0x18 }
  - { offsetInCU: 0x16A28, offset: 0x16A28, size: 0x8, addend: 0x0, symName: __ZNSt3__111__wrap_iterIP20ECElevatorSimRequestEppB8ne180100Ev, symObjAddr: 0xB78, symBinAddr: 0x100003C74, symSize: 0x20 }
  - { offsetInCU: 0x16A4E, offset: 0x16A4E, size: 0x8, addend: 0x0, symName: __ZNSt3__16vectorINS_12basic_stringIcNS_11char_traitsIcEENS_9allocatorIcEEEENS4_IS6_EEE9push_backB8ne180100EOS6_, symObjAddr: 0xB98, symBinAddr: 0x100003C94, symSize: 0x90 }
  - { offsetInCU: 0x16A94, offset: 0x16A94, size: 0x8, addend: 0x0, symName: __ZNKSt3__119basic_ostringstreamIcNS_11char_traitsIcEENS_9allocatorIcEEE3strB8ne180100Ev, symObjAddr: 0xC28, symBinAddr: 0x100003D24, symSize: 0x30 }
  - { offsetInCU: 0x16ABA, offset: 0x16ABA, size: 0x8, addend: 0x0, symName: __ZNKSt3__16vectorI20ECElevatorSimRequestNS_9allocatorIS1_EEE5emptyB8ne180100Ev, symObjAddr: 0xC58, symBinAddr: 0x100003D54, symSize: 0x28 }
  - { offsetInCU: 0x16AE0, offset: 0x16AE0, size: 0x8, addend: 0x0, symName: __ZNK20ECElevatorSimRequest17GetRequestedFloorEv, symObjAddr: 0xC80, symBinAddr: 0x100003D7C, symSize: 0x70 }
  - { offsetInCU: 0x16B06, offset: 0x16B06, size: 0x8, addend: 0x0, symName: __ZN13ECElevatorSim17transitionToStateE20EC_ELEVATOR_MOVEMENT, symObjAddr: 0xCF0, symBinAddr: 0x100003DEC, symSize: 0x1B8 }
  - { offsetInCU: 0x16B41, offset: 0x16B41, size: 0x8, addend: 0x0, symName: __ZNSt3__119basic_ostringstreamIcNS_11char_traitsIcEENS_9allocatorIcEEED1Ev, symObjAddr: 0xEA8, symBinAddr: 0x100003FA4, symSize: 0x40 }
  - { offsetInCU: 0x16BCA, offset: 0x16BCA, size: 0x8, addend: 0x0, symName: __ZN7Loading10onTimeTickEv, symObjAddr: 0xEE8, symBinAddr: 0x100003FE4, symSize: 0x3E8 }
  - { offsetInCU: 0x16CAA, offset: 0x16CAA, size: 0x8, addend: 0x0, symName: __ZNK20ECElevatorSimRequest10IsServicedEv, symObjAddr: 0x12D0, symBinAddr: 0x1000043CC, symSize: 0x1C }
  - { offsetInCU: 0x16CD0, offset: 0x16CD0, size: 0x8, addend: 0x0, symName: __ZNK20ECElevatorSimRequest18IsFloorRequestDoneEv, symObjAddr: 0x12EC, symBinAddr: 0x1000043E8, symSize: 0x1C }
  - { offsetInCU: 0x16CF6, offset: 0x16CF6, size: 0x8, addend: 0x0, symName: __ZN20ECElevatorSimRequest13SetArriveTimeEi, symObjAddr: 0x1308, symBinAddr: 0x100004404, symSize: 0x20 }
  - { offsetInCU: 0x16D2A, offset: 0x16D2A, size: 0x8, addend: 0x0, symName: __ZN20ECElevatorSimRequest19SetFloorRequestDoneEb, symObjAddr: 0x1328, symBinAddr: 0x100004424, symSize: 0x2C }
  - { offsetInCU: 0x16D5E, offset: 0x16D5E, size: 0x8, addend: 0x0, symName: __ZN20ECElevatorSimRequest11SetServicedEb, symObjAddr: 0x1354, symBinAddr: 0x100004450, symSize: 0x2C }
  - { offsetInCU: 0x16DEE, offset: 0x16DEE, size: 0x8, addend: 0x0, symName: __ZN6Moving10onTimeTickEv, symObjAddr: 0x1380, symBinAddr: 0x10000447C, symSize: 0x2DC }
  - { offsetInCU: 0x16EA7, offset: 0x16EA7, size: 0x8, addend: 0x0, symName: __ZNSt3__16vectorI20ECElevatorSimRequestNS_9allocatorIS1_EEE5clearB8ne180100Ev, symObjAddr: 0x165C, symBinAddr: 0x100004758, symSize: 0x44 }
  - { offsetInCU: 0x16EDC, offset: 0x16EDC, size: 0x8, addend: 0x0, symName: __ZNK20ECElevatorSimRequest7GetTimeEv, symObjAddr: 0x16A0, symBinAddr: 0x10000479C, symSize: 0x18 }
  - { offsetInCU: 0x16F02, offset: 0x16F02, size: 0x8, addend: 0x0, symName: __ZNSt3__16vectorI20ECElevatorSimRequestNS_9allocatorIS1_EEE9push_backB8ne180100ERKS1_, symObjAddr: 0x16B8, symBinAddr: 0x1000047B4, symSize: 0x90 }
  - { offsetInCU: 0x16F48, offset: 0x16F48, size: 0x8, addend: 0x0, symName: __ZN6MovingC1ER13ECElevatorSim, symObjAddr: 0x1748, symBinAddr: 0x100004844, symSize: 0x34 }
  - { offsetInCU: 0x16F80, offset: 0x16F80, size: 0x8, addend: 0x0, symName: __ZN7LoadingC1ER13ECElevatorSim, symObjAddr: 0x177C, symBinAddr: 0x100004878, symSize: 0x34 }
  - { offsetInCU: 0x16FB8, offset: 0x16FB8, size: 0x8, addend: 0x0, symName: __ZN13ECElevatorSim8SimulateEi, symObjAddr: 0x17B0, symBinAddr: 0x1000048AC, symSize: 0x7C }
  - { offsetInCU: 0x1700A, offset: 0x1700A, size: 0x8, addend: 0x0, symName: _main, symObjAddr: 0x182C, symBinAddr: 0x100004928, symSize: 0x5D8 }
  - { offsetInCU: 0x17162, offset: 0x17162, size: 0x8, addend: 0x0, symName: __ZNSt3__112basic_stringIcNS_11char_traitsIcEENS_9allocatorIcEEEC1B8ne180100ILi0EEEPKc, symObjAddr: 0x1E04, symBinAddr: 0x100004F00, symSize: 0x34 }
  - { offsetInCU: 0x172AD, offset: 0x172AD, size: 0x8, addend: 0x0, symName: __ZNSt3__114basic_ifstreamIcNS_11char_traitsIcEEEC1ERKNS_12basic_stringIcS2_NS_9allocatorIcEEEEj, symObjAddr: 0x1E38, symBinAddr: 0x100004F34, symSize: 0x16C }
  - { offsetInCU: 0x172F7, offset: 0x172F7, size: 0x8, addend: 0x0, symName: __ZNKSt3__19basic_iosIcNS_11char_traitsIcEEEntB8ne180100Ev, symObjAddr: 0x1FA4, symBinAddr: 0x1000050A0, symSize: 0x28 }
  - { offsetInCU: 0x1731D, offset: 0x1731D, size: 0x8, addend: 0x0, symName: __ZNSt3__112basic_stringIcNS_11char_traitsIcEENS_9allocatorIcEEEC1B8ne180100Ev, symObjAddr: 0x2018, symBinAddr: 0x100005114, symSize: 0x2C }
  - { offsetInCU: 0x17347, offset: 0x17347, size: 0x8, addend: 0x0, symName: __ZNKSt3__19basic_iosIcNS_11char_traitsIcEEEcvbB8ne180100Ev, symObjAddr: 0x20A0, symBinAddr: 0x10000519C, symSize: 0x2C }
  - { offsetInCU: 0x1736D, offset: 0x1736D, size: 0x8, addend: 0x0, symName: __ZNSt3__112basic_stringIcNS_11char_traitsIcEENS_9allocatorIcEEEixB8ne180100Em, symObjAddr: 0x20CC, symBinAddr: 0x1000051C8, symSize: 0x48 }
  - { offsetInCU: 0x173C5, offset: 0x173C5, size: 0x8, addend: 0x0, symName: __ZNSt3__119basic_istringstreamIcNS_11char_traitsIcEENS_9allocatorIcEEEC1B8ne180100ERKNS_12basic_stringIcS2_S4_EEj, symObjAddr: 0x2114, symBinAddr: 0x100005210, symSize: 0xFC }
  - { offsetInCU: 0x17412, offset: 0x17412, size: 0x8, addend: 0x0, symName: __ZNSt3__119basic_istringstreamIcNS_11char_traitsIcEENS_9allocatorIcEEED1Ev, symObjAddr: 0x2210, symBinAddr: 0x10000530C, symSize: 0x40 }
  - { offsetInCU: 0x1743F, offset: 0x1743F, size: 0x8, addend: 0x0, symName: __ZNSt3__16vectorI20ECElevatorSimRequestNS_9allocatorIS1_EEEC1B8ne180100Ev, symObjAddr: 0x2250, symBinAddr: 0x10000534C, symSize: 0x2C }
  - { offsetInCU: 0x17469, offset: 0x17469, size: 0x8, addend: 0x0, symName: __ZNSt3__16vectorI20ECElevatorSimRequestNS_9allocatorIS1_EEE12emplace_backIJRiS6_S6_EEERS1_DpOT_, symObjAddr: 0x227C, symBinAddr: 0x100005378, symSize: 0xB0 }
  - { offsetInCU: 0x174E2, offset: 0x174E2, size: 0x8, addend: 0x0, symName: __ZNK13ECElevatorSim10GetHistoryEv, symObjAddr: 0x232C, symBinAddr: 0x100005428, symSize: 0x18 }
  - { offsetInCU: 0x17508, offset: 0x17508, size: 0x8, addend: 0x0, symName: __ZNKSt3__16vectorINS_12basic_stringIcNS_11char_traitsIcEENS_9allocatorIcEEEENS4_IS6_EEE5beginB8ne180100Ev, symObjAddr: 0x2344, symBinAddr: 0x100005440, symSize: 0x30 }
  - { offsetInCU: 0x17530, offset: 0x17530, size: 0x8, addend: 0x0, symName: __ZNKSt3__16vectorINS_12basic_stringIcNS_11char_traitsIcEENS_9allocatorIcEEEENS4_IS6_EEE3endB8ne180100Ev, symObjAddr: 0x2374, symBinAddr: 0x100005470, symSize: 0x30 }
  - { offsetInCU: 0x17558, offset: 0x17558, size: 0x8, addend: 0x0, symName: __ZNKSt3__111__wrap_iterIPKNS_12basic_stringIcNS_11char_traitsIcEENS_9allocatorIcEEEEEdeB8ne180100Ev, symObjAddr: 0x23D8, symBinAddr: 0x1000054D4, symSize: 0x18 }
  - { offsetInCU: 0x1757E, offset: 0x1757E, size: 0x8, addend: 0x0, symName: __ZNSt3__111__wrap_iterIPKNS_12basic_stringIcNS_11char_traitsIcEENS_9allocatorIcEEEEEppB8ne180100Ev, symObjAddr: 0x23F0, symBinAddr: 0x1000054EC, symSize: 0x20 }
  - { offsetInCU: 0x175A9, offset: 0x175A9, size: 0x8, addend: 0x0, symName: __ZNSt3__114basic_ifstreamIcNS_11char_traitsIcEEED1Ev, symObjAddr: 0x2410, symBinAddr: 0x10000550C, symSize: 0x40 }
  - { offsetInCU: 0x175D6, offset: 0x175D6, size: 0x8, addend: 0x0, symName: __ZN7StoppedD1Ev, symObjAddr: 0x2450, symBinAddr: 0x10000554C, symSize: 0x2C }
  - { offsetInCU: 0x17602, offset: 0x17602, size: 0x8, addend: 0x0, symName: __ZN7StoppedD0Ev, symObjAddr: 0x247C, symBinAddr: 0x100005578, symSize: 0x30 }
  - { offsetInCU: 0x1762E, offset: 0x1762E, size: 0x8, addend: 0x0, symName: __ZN6MovingD1Ev, symObjAddr: 0x24AC, symBinAddr: 0x1000055A8, symSize: 0x2C }
  - { offsetInCU: 0x1765A, offset: 0x1765A, size: 0x8, addend: 0x0, symName: __ZN6MovingD0Ev, symObjAddr: 0x24D8, symBinAddr: 0x1000055D4, symSize: 0x30 }
  - { offsetInCU: 0x17686, offset: 0x17686, size: 0x8, addend: 0x0, symName: __ZN7LoadingD1Ev, symObjAddr: 0x2508, symBinAddr: 0x100005604, symSize: 0x2C }
  - { offsetInCU: 0x176B2, offset: 0x176B2, size: 0x8, addend: 0x0, symName: __ZN7LoadingD0Ev, symObjAddr: 0x2534, symBinAddr: 0x100005630, symSize: 0x30 }
  - { offsetInCU: 0x176DE, offset: 0x176DE, size: 0x8, addend: 0x0, symName: __ZN7StoppedC2ER13ECElevatorSim, symObjAddr: 0x2564, symBinAddr: 0x100005660, symSize: 0x4C }
  - { offsetInCU: 0x17716, offset: 0x17716, size: 0x8, addend: 0x0, symName: __ZN13ElevatorStateC2ER13ECElevatorSim, symObjAddr: 0x25B0, symBinAddr: 0x1000056AC, symSize: 0x58 }
  - { offsetInCU: 0x1774E, offset: 0x1774E, size: 0x8, addend: 0x0, symName: __ZN13ElevatorStateD1Ev, symObjAddr: 0x2608, symBinAddr: 0x100005704, symSize: 0x14 }
  - { offsetInCU: 0x17778, offset: 0x17778, size: 0x8, addend: 0x0, symName: __ZN13ElevatorStateD0Ev, symObjAddr: 0x261C, symBinAddr: 0x100005718, symSize: 0xC }
  - { offsetInCU: 0x177A2, offset: 0x177A2, size: 0x8, addend: 0x0, symName: __ZNKSt3__111__wrap_iterIP20ECElevatorSimRequestE4baseB8ne180100Ev, symObjAddr: 0x2670, symBinAddr: 0x10000576C, symSize: 0x18 }
  - { offsetInCU: 0x177C8, offset: 0x177C8, size: 0x8, addend: 0x0, symName: __ZNSt3__119basic_ostringstreamIcNS_11char_traitsIcEENS_9allocatorIcEEED2Ev, symObjAddr: 0x2688, symBinAddr: 0x100005784, symSize: 0x64 }
  - { offsetInCU: 0x17802, offset: 0x17802, size: 0x8, addend: 0x0, symName: __ZTv0_n24_NSt3__119basic_ostringstreamIcNS_11char_traitsIcEENS_9allocatorIcEEED1Ev, symObjAddr: 0x26EC, symBinAddr: 0x1000057E8, symSize: 0x28 }
  - { offsetInCU: 0x1781E, offset: 0x1781E, size: 0x8, addend: 0x0, symName: __ZNSt3__115basic_stringbufIcNS_11char_traitsIcEENS_9allocatorIcEEED1Ev, symObjAddr: 0x2714, symBinAddr: 0x100005810, symSize: 0x2C }
  - { offsetInCU: 0x1784B, offset: 0x1784B, size: 0x8, addend: 0x0, symName: __ZNSt3__115basic_stringbufIcNS_11char_traitsIcEENS_9allocatorIcEEED2Ev, symObjAddr: 0x2740, symBinAddr: 0x10000583C, symSize: 0x48 }
  - { offsetInCU: 0x17878, offset: 0x17878, size: 0x8, addend: 0x0, symName: __ZN6MovingC2ER13ECElevatorSim, symObjAddr: 0x2788, symBinAddr: 0x100005884, symSize: 0x4C }
  - { offsetInCU: 0x178B0, offset: 0x178B0, size: 0x8, addend: 0x0, symName: __ZN7LoadingC2ER13ECElevatorSim, symObjAddr: 0x27D4, symBinAddr: 0x1000058D0, symSize: 0x4C }
  - { offsetInCU: 0x178E8, offset: 0x178E8, size: 0x8, addend: 0x0, symName: __ZNSt3__119basic_istringstreamIcNS_11char_traitsIcEENS_9allocatorIcEEED2Ev, symObjAddr: 0x2820, symBinAddr: 0x10000591C, symSize: 0x64 }
  - { offsetInCU: 0x17922, offset: 0x17922, size: 0x8, addend: 0x0, symName: __ZTv0_n24_NSt3__119basic_istringstreamIcNS_11char_traitsIcEENS_9allocatorIcEEED1Ev, symObjAddr: 0x2884, symBinAddr: 0x100005980, symSize: 0x28 }
  - { offsetInCU: 0x17939, offset: 0x17939, size: 0x8, addend: 0x0, symName: __ZNKSt3__111__wrap_iterIPKNS_12basic_stringIcNS_11char_traitsIcEENS_9allocatorIcEEEEE4baseB8ne180100Ev, symObjAddr: 0x28F4, symBinAddr: 0x1000059F0, symSize: 0x18 }
  - { offsetInCU: 0x1795F, offset: 0x1795F, size: 0x8, addend: 0x0, symName: __ZNSt3__114basic_ifstreamIcNS_11char_traitsIcEEED2Ev, symObjAddr: 0x290C, symBinAddr: 0x100005A08, symSize: 0x64 }
  - { offsetInCU: 0x17999, offset: 0x17999, size: 0x8, addend: 0x0, symName: __ZTv0_n24_NSt3__114basic_ifstreamIcNS_11char_traitsIcEEED1Ev, symObjAddr: 0x2970, symBinAddr: 0x100005A6C, symSize: 0x28 }
  - { offsetInCU: 0x179B0, offset: 0x179B0, size: 0x8, addend: 0x0, symName: __ZN7StoppedD2Ev, symObjAddr: 0x2998, symBinAddr: 0x100005A94, symSize: 0x2C }
  - { offsetInCU: 0x179DC, offset: 0x179DC, size: 0x8, addend: 0x0, symName: __ZN13ElevatorStateD2Ev, symObjAddr: 0x29C4, symBinAddr: 0x100005AC0, symSize: 0x4C }
  - { offsetInCU: 0x17A06, offset: 0x17A06, size: 0x8, addend: 0x0, symName: __ZN6MovingD2Ev, symObjAddr: 0x2A10, symBinAddr: 0x100005B0C, symSize: 0x2C }
  - { offsetInCU: 0x17A32, offset: 0x17A32, size: 0x8, addend: 0x0, symName: __ZN7LoadingD2Ev, symObjAddr: 0x2A3C, symBinAddr: 0x100005B38, symSize: 0x2C }
  - { offsetInCU: 0x17A5E, offset: 0x17A5E, size: 0x8, addend: 0x0, symName: __ZNSt3__16vectorI20ECElevatorSimRequestNS_9allocatorIS1_EEEC2B8ne180100Ev, symObjAddr: 0x2A68, symBinAddr: 0x100005B64, symSize: 0x4C }
  - { offsetInCU: 0x17A92, offset: 0x17A92, size: 0x8, addend: 0x0, symName: __ZNSt3__117__compressed_pairIP20ECElevatorSimRequestNS_9allocatorIS1_EEEC1B8ne180100IDnNS_18__default_init_tagEEEOT_OT0_, symObjAddr: 0x2AB4, symBinAddr: 0x100005BB0, symSize: 0x3C }
  - { offsetInCU: 0x17AEA, offset: 0x17AEA, size: 0x8, addend: 0x0, symName: __ZNSt3__117__compressed_pairIP20ECElevatorSimRequestNS_9allocatorIS1_EEEC2B8ne180100IDnNS_18__default_init_tagEEEOT_OT0_, symObjAddr: 0x2AFC, symBinAddr: 0x100005BF8, symSize: 0x40 }
  - { offsetInCU: 0x17B42, offset: 0x17B42, size: 0x8, addend: 0x0, symName: __ZNSt3__122__compressed_pair_elemIP20ECElevatorSimRequestLi0ELb0EEC2B8ne180100IDnvEEOT_, symObjAddr: 0x2B3C, symBinAddr: 0x100005C38, symSize: 0x1C }
  - { offsetInCU: 0x17B84, offset: 0x17B84, size: 0x8, addend: 0x0, symName: __ZNSt3__122__compressed_pair_elemINS_9allocatorI20ECElevatorSimRequestEELi1ELb1EEC2B8ne180100ENS_18__default_init_tagE, symObjAddr: 0x2B58, symBinAddr: 0x100005C54, symSize: 0x2C }
  - { offsetInCU: 0x17BB9, offset: 0x17BB9, size: 0x8, addend: 0x0, symName: __ZNSt3__19allocatorI20ECElevatorSimRequestEC2B8ne180100Ev, symObjAddr: 0x2B84, symBinAddr: 0x100005C80, symSize: 0x2C }
  - { offsetInCU: 0x17BE3, offset: 0x17BE3, size: 0x8, addend: 0x0, symName: __ZNSt3__116__non_trivial_ifILb1ENS_9allocatorI20ECElevatorSimRequestEEEC2B8ne180100Ev, symObjAddr: 0x2BB0, symBinAddr: 0x100005CAC, symSize: 0x14 }
  - { offsetInCU: 0x17C0D, offset: 0x17C0D, size: 0x8, addend: 0x0, symName: __ZNSt3__16vectorI20ECElevatorSimRequestNS_9allocatorIS1_EEED2B8ne180100Ev, symObjAddr: 0x2BC4, symBinAddr: 0x100005CC0, symSize: 0x44 }
  - { offsetInCU: 0x17C37, offset: 0x17C37, size: 0x8, addend: 0x0, symName: __ZNSt3__16vectorI20ECElevatorSimRequestNS_9allocatorIS1_EEE16__destroy_vectorC1B8ne180100ERS4_, symObjAddr: 0x2C08, symBinAddr: 0x100005D04, symSize: 0x34 }
  - { offsetInCU: 0x17C70, offset: 0x17C70, size: 0x8, addend: 0x0, symName: __ZNSt3__16vectorI20ECElevatorSimRequestNS_9allocatorIS1_EEE16__destroy_vectorclB8ne180100Ev, symObjAddr: 0x2C3C, symBinAddr: 0x100005D38, symSize: 0x90 }
  - { offsetInCU: 0x17C96, offset: 0x17C96, size: 0x8, addend: 0x0, symName: __ZNSt3__16vectorI20ECElevatorSimRequestNS_9allocatorIS1_EEE16__destroy_vectorC2B8ne180100ERS4_, symObjAddr: 0x2CCC, symBinAddr: 0x100005DC8, symSize: 0x20 }
  - { offsetInCU: 0x17CCF, offset: 0x17CCF, size: 0x8, addend: 0x0, symName: __ZNSt3__16vectorI20ECElevatorSimRequestNS_9allocatorIS1_EEE7__clearB8ne180100Ev, symObjAddr: 0x2CEC, symBinAddr: 0x100005DE8, symSize: 0x28 }
  - { offsetInCU: 0x17CF5, offset: 0x17CF5, size: 0x8, addend: 0x0, symName: __ZNKSt3__16vectorI20ECElevatorSimRequestNS_9allocatorIS1_EEE17__annotate_deleteB8ne180100Ev, symObjAddr: 0x2D14, symBinAddr: 0x100005E10, symSize: 0x10 }
  - { offsetInCU: 0x17D1B, offset: 0x17D1B, size: 0x8, addend: 0x0, symName: __ZNSt3__116allocator_traitsINS_9allocatorI20ECElevatorSimRequestEEE10deallocateB8ne180100ERS3_PS2_m, symObjAddr: 0x2D24, symBinAddr: 0x100005E20, symSize: 0x34 }
  - { offsetInCU: 0x17D5D, offset: 0x17D5D, size: 0x8, addend: 0x0, symName: __ZNSt3__16vectorI20ECElevatorSimRequestNS_9allocatorIS1_EEE7__allocB8ne180100Ev, symObjAddr: 0x2D58, symBinAddr: 0x100005E54, symSize: 0x28 }
  - { offsetInCU: 0x17D83, offset: 0x17D83, size: 0x8, addend: 0x0, symName: __ZNKSt3__16vectorI20ECElevatorSimRequestNS_9allocatorIS1_EEE8capacityB8ne180100Ev, symObjAddr: 0x2D80, symBinAddr: 0x100005E7C, symSize: 0x40 }
  - { offsetInCU: 0x17DA9, offset: 0x17DA9, size: 0x8, addend: 0x0, symName: __ZNSt3__16vectorI20ECElevatorSimRequestNS_9allocatorIS1_EEE22__base_destruct_at_endB8ne180100EPS1_, symObjAddr: 0x2DC0, symBinAddr: 0x100005EBC, symSize: 0x8C }
  - { offsetInCU: 0x17DED, offset: 0x17DED, size: 0x8, addend: 0x0, symName: __ZNSt3__116allocator_traitsINS_9allocatorI20ECElevatorSimRequestEEE7destroyB8ne180100IS2_vEEvRS3_PT_, symObjAddr: 0x2E4C, symBinAddr: 0x100005F48, symSize: 0x2C }
  - { offsetInCU: 0x17E2A, offset: 0x17E2A, size: 0x8, addend: 0x0, symName: __ZNSt3__19allocatorI20ECElevatorSimRequestE7destroyB8ne180100EPS1_, symObjAddr: 0x2E8C, symBinAddr: 0x100005F88, symSize: 0x14 }
  - { offsetInCU: 0x17E5E, offset: 0x17E5E, size: 0x8, addend: 0x0, symName: __ZNSt3__19allocatorI20ECElevatorSimRequestE10deallocateB8ne180100EPS1_m, symObjAddr: 0x2EA0, symBinAddr: 0x100005F9C, symSize: 0x44 }
  - { offsetInCU: 0x17EA0, offset: 0x17EA0, size: 0x8, addend: 0x0, symName: __ZNSt3__117__compressed_pairIP20ECElevatorSimRequestNS_9allocatorIS1_EEE6secondB8ne180100Ev, symObjAddr: 0x300C, symBinAddr: 0x100006108, symSize: 0x24 }
  - { offsetInCU: 0x17EC6, offset: 0x17EC6, size: 0x8, addend: 0x0, symName: __ZNSt3__122__compressed_pair_elemINS_9allocatorI20ECElevatorSimRequestEELi1ELb1EE5__getB8ne180100Ev, symObjAddr: 0x3030, symBinAddr: 0x10000612C, symSize: 0x14 }
  - { offsetInCU: 0x17EEC, offset: 0x17EEC, size: 0x8, addend: 0x0, symName: __ZNKSt3__16vectorI20ECElevatorSimRequestNS_9allocatorIS1_EEE9__end_capB8ne180100Ev, symObjAddr: 0x3044, symBinAddr: 0x100006140, symSize: 0x28 }
  - { offsetInCU: 0x17F12, offset: 0x17F12, size: 0x8, addend: 0x0, symName: __ZNKSt3__117__compressed_pairIP20ECElevatorSimRequestNS_9allocatorIS1_EEE5firstB8ne180100Ev, symObjAddr: 0x306C, symBinAddr: 0x100006168, symSize: 0x24 }
  - { offsetInCU: 0x17F38, offset: 0x17F38, size: 0x8, addend: 0x0, symName: __ZNKSt3__122__compressed_pair_elemIP20ECElevatorSimRequestLi0ELb0EE5__getB8ne180100Ev, symObjAddr: 0x3090, symBinAddr: 0x10000618C, symSize: 0x14 }
  - { offsetInCU: 0x17F5E, offset: 0x17F5E, size: 0x8, addend: 0x0, symName: __ZNSt3__112basic_stringIcNS_11char_traitsIcEENS_9allocatorIcEEEC2B8ne180100Ev, symObjAddr: 0x30A4, symBinAddr: 0x1000061A0, symSize: 0x48 }
  - { offsetInCU: 0x17F8D, offset: 0x17F8D, size: 0x8, addend: 0x0, symName: __ZNSt3__117__compressed_pairINS_12basic_stringIcNS_11char_traitsIcEENS_9allocatorIcEEE5__repES5_EC1B8ne180100INS_16__value_init_tagENS_18__default_init_tagEEEOT_OT0_, symObjAddr: 0x30EC, symBinAddr: 0x1000061E8, symSize: 0x3C }
  - { offsetInCU: 0x17FE5, offset: 0x17FE5, size: 0x8, addend: 0x0, symName: __ZNKSt3__112basic_stringIcNS_11char_traitsIcEENS_9allocatorIcEEE14__annotate_newB8ne180100Em, symObjAddr: 0x3128, symBinAddr: 0x100006224, symSize: 0x14 }
  - { offsetInCU: 0x1801A, offset: 0x1801A, size: 0x8, addend: 0x0, symName: __ZNSt3__117__compressed_pairINS_12basic_stringIcNS_11char_traitsIcEENS_9allocatorIcEEE5__repES5_EC2B8ne180100INS_16__value_init_tagENS_18__default_init_tagEEEOT_OT0_, symObjAddr: 0x313C, symBinAddr: 0x100006238, symSize: 0x3C }
  - { offsetInCU: 0x18072, offset: 0x18072, size: 0x8, addend: 0x0, symName: __ZNSt3__122__compressed_pair_elemINS_12basic_stringIcNS_11char_traitsIcEENS_9allocatorIcEEE5__repELi0ELb0EEC2B8ne180100ENS_16__value_init_tagE, symObjAddr: 0x3178, symBinAddr: 0x100006274, symSize: 0x20 }
  - { offsetInCU: 0x180A7, offset: 0x180A7, size: 0x8, addend: 0x0, symName: __ZNSt3__122__compressed_pair_elemINS_9allocatorIcEELi1ELb1EEC2B8ne180100ENS_18__default_init_tagE, symObjAddr: 0x3198, symBinAddr: 0x100006294, symSize: 0x2C }
  - { offsetInCU: 0x180DC, offset: 0x180DC, size: 0x8, addend: 0x0, symName: __ZNSt3__19allocatorIcEC2B8ne180100Ev, symObjAddr: 0x31C4, symBinAddr: 0x1000062C0, symSize: 0x2C }
  - { offsetInCU: 0x18106, offset: 0x18106, size: 0x8, addend: 0x0, symName: __ZNSt3__116__non_trivial_ifILb1ENS_9allocatorIcEEEC2B8ne180100Ev, symObjAddr: 0x31F0, symBinAddr: 0x1000062EC, symSize: 0x14 }
  - { offsetInCU: 0x18130, offset: 0x18130, size: 0x8, addend: 0x0, symName: __ZNSt3__16vectorI20ECElevatorSimRequestNS_9allocatorIS1_EEEC2B8ne180100EOS4_, symObjAddr: 0x3204, symBinAddr: 0x100006300, symSize: 0xC4 }
  - { offsetInCU: 0x18170, offset: 0x18170, size: 0x8, addend: 0x0, symName: __ZNSt3__117__compressed_pairIP20ECElevatorSimRequestNS_9allocatorIS1_EEEC1B8ne180100IDnS4_EEOT_OT0_, symObjAddr: 0x32C8, symBinAddr: 0x1000063C4, symSize: 0x3C }
  - { offsetInCU: 0x181C8, offset: 0x181C8, size: 0x8, addend: 0x0, symName: __ZNSt3__16vectorI20ECElevatorSimRequestNS_9allocatorIS1_EEE9__end_capB8ne180100Ev, symObjAddr: 0x3304, symBinAddr: 0x100006400, symSize: 0x28 }
  - { offsetInCU: 0x181EE, offset: 0x181EE, size: 0x8, addend: 0x0, symName: __ZNSt3__117__compressed_pairIP20ECElevatorSimRequestNS_9allocatorIS1_EEEC2B8ne180100IDnS4_EEOT_OT0_, symObjAddr: 0x332C, symBinAddr: 0x100006428, symSize: 0x44 }
  - { offsetInCU: 0x18246, offset: 0x18246, size: 0x8, addend: 0x0, symName: __ZNSt3__122__compressed_pair_elemINS_9allocatorI20ECElevatorSimRequestEELi1ELb1EEC2B8ne180100IS3_vEEOT_, symObjAddr: 0x3370, symBinAddr: 0x10000646C, symSize: 0x18 }
  - { offsetInCU: 0x18288, offset: 0x18288, size: 0x8, addend: 0x0, symName: __ZNSt3__117__compressed_pairIP20ECElevatorSimRequestNS_9allocatorIS1_EEE5firstB8ne180100Ev, symObjAddr: 0x3388, symBinAddr: 0x100006484, symSize: 0x24 }
  - { offsetInCU: 0x182AE, offset: 0x182AE, size: 0x8, addend: 0x0, symName: __ZNSt3__122__compressed_pair_elemIP20ECElevatorSimRequestLi0ELb0EE5__getB8ne180100Ev, symObjAddr: 0x33AC, symBinAddr: 0x1000064A8, symSize: 0x14 }
  - { offsetInCU: 0x182D4, offset: 0x182D4, size: 0x8, addend: 0x0, symName: __ZNSt3__16vectorINS_12basic_stringIcNS_11char_traitsIcEENS_9allocatorIcEEEENS4_IS6_EEEC2B8ne180100Ev, symObjAddr: 0x33C0, symBinAddr: 0x1000064BC, symSize: 0x4C }
  - { offsetInCU: 0x182FE, offset: 0x182FE, size: 0x8, addend: 0x0, symName: __ZNSt3__117__compressed_pairIPNS_12basic_stringIcNS_11char_traitsIcEENS_9allocatorIcEEEENS4_IS6_EEEC1B8ne180100IDnNS_18__default_init_tagEEEOT_OT0_, symObjAddr: 0x340C, symBinAddr: 0x100006508, symSize: 0x3C }
  - { offsetInCU: 0x18356, offset: 0x18356, size: 0x8, addend: 0x0, symName: __ZNSt3__117__compressed_pairIPNS_12basic_stringIcNS_11char_traitsIcEENS_9allocatorIcEEEENS4_IS6_EEEC2B8ne180100IDnNS_18__default_init_tagEEEOT_OT0_, symObjAddr: 0x3448, symBinAddr: 0x100006544, symSize: 0x40 }
  - { offsetInCU: 0x183AE, offset: 0x183AE, size: 0x8, addend: 0x0, symName: __ZNSt3__122__compressed_pair_elemIPNS_12basic_stringIcNS_11char_traitsIcEENS_9allocatorIcEEEELi0ELb0EEC2B8ne180100IDnvEEOT_, symObjAddr: 0x3488, symBinAddr: 0x100006584, symSize: 0x1C }
  - { offsetInCU: 0x183F0, offset: 0x183F0, size: 0x8, addend: 0x0, symName: __ZNSt3__122__compressed_pair_elemINS_9allocatorINS_12basic_stringIcNS_11char_traitsIcEENS1_IcEEEEEELi1ELb1EEC2B8ne180100ENS_18__default_init_tagE, symObjAddr: 0x34A4, symBinAddr: 0x1000065A0, symSize: 0x2C }
  - { offsetInCU: 0x18425, offset: 0x18425, size: 0x8, addend: 0x0, symName: __ZNSt3__19allocatorINS_12basic_stringIcNS_11char_traitsIcEENS0_IcEEEEEC2B8ne180100Ev, symObjAddr: 0x34D0, symBinAddr: 0x1000065CC, symSize: 0x2C }
  - { offsetInCU: 0x1844F, offset: 0x1844F, size: 0x8, addend: 0x0, symName: __ZNSt3__116__non_trivial_ifILb1ENS_9allocatorINS_12basic_stringIcNS_11char_traitsIcEENS1_IcEEEEEEEC2B8ne180100Ev, symObjAddr: 0x34FC, symBinAddr: 0x1000065F8, symSize: 0x14 }
  - { offsetInCU: 0x18479, offset: 0x18479, size: 0x8, addend: 0x0, symName: __ZNSt3__16vectorINS_12basic_stringIcNS_11char_traitsIcEENS_9allocatorIcEEEENS4_IS6_EEED2B8ne180100Ev, symObjAddr: 0x3510, symBinAddr: 0x10000660C, symSize: 0x44 }
  - { offsetInCU: 0x184A3, offset: 0x184A3, size: 0x8, addend: 0x0, symName: __ZNSt3__16vectorINS_12basic_stringIcNS_11char_traitsIcEENS_9allocatorIcEEEENS4_IS6_EEE16__destroy_vectorC1B8ne180100ERS8_, symObjAddr: 0x3554, symBinAddr: 0x100006650, symSize: 0x34 }
  - { offsetInCU: 0x184DC, offset: 0x184DC, size: 0x8, addend: 0x0, symName: __ZNSt3__16vectorINS_12basic_stringIcNS_11char_traitsIcEENS_9allocatorIcEEEENS4_IS6_EEE16__destroy_vectorclB8ne180100Ev, symObjAddr: 0x3588, symBinAddr: 0x100006684, symSize: 0x90 }
  - { offsetInCU: 0x18502, offset: 0x18502, size: 0x8, addend: 0x0, symName: __ZNSt3__16vectorINS_12basic_stringIcNS_11char_traitsIcEENS_9allocatorIcEEEENS4_IS6_EEE16__destroy_vectorC2B8ne180100ERS8_, symObjAddr: 0x3618, symBinAddr: 0x100006714, symSize: 0x20 }
  - { offsetInCU: 0x1853B, offset: 0x1853B, size: 0x8, addend: 0x0, symName: __ZNSt3__16vectorINS_12basic_stringIcNS_11char_traitsIcEENS_9allocatorIcEEEENS4_IS6_EEE7__clearB8ne180100Ev, symObjAddr: 0x3638, symBinAddr: 0x100006734, symSize: 0x28 }
  - { offsetInCU: 0x18561, offset: 0x18561, size: 0x8, addend: 0x0, symName: __ZNKSt3__16vectorINS_12basic_stringIcNS_11char_traitsIcEENS_9allocatorIcEEEENS4_IS6_EEE17__annotate_deleteB8ne180100Ev, symObjAddr: 0x3660, symBinAddr: 0x10000675C, symSize: 0x10 }
  - { offsetInCU: 0x18587, offset: 0x18587, size: 0x8, addend: 0x0, symName: __ZNSt3__116allocator_traitsINS_9allocatorINS_12basic_stringIcNS_11char_traitsIcEENS1_IcEEEEEEE10deallocateB8ne180100ERS7_PS6_m, symObjAddr: 0x3670, symBinAddr: 0x10000676C, symSize: 0x34 }
  - { offsetInCU: 0x185C9, offset: 0x185C9, size: 0x8, addend: 0x0, symName: __ZNSt3__16vectorINS_12basic_stringIcNS_11char_traitsIcEENS_9allocatorIcEEEENS4_IS6_EEE7__allocB8ne180100Ev, symObjAddr: 0x36A4, symBinAddr: 0x1000067A0, symSize: 0x28 }
  - { offsetInCU: 0x185EF, offset: 0x185EF, size: 0x8, addend: 0x0, symName: __ZNKSt3__16vectorINS_12basic_stringIcNS_11char_traitsIcEENS_9allocatorIcEEEENS4_IS6_EEE8capacityB8ne180100Ev, symObjAddr: 0x36CC, symBinAddr: 0x1000067C8, symSize: 0x40 }
  - { offsetInCU: 0x18615, offset: 0x18615, size: 0x8, addend: 0x0, symName: __ZNSt3__16vectorINS_12basic_stringIcNS_11char_traitsIcEENS_9allocatorIcEEEENS4_IS6_EEE22__base_destruct_at_endB8ne180100EPS6_, symObjAddr: 0x370C, symBinAddr: 0x100006808, symSize: 0x8C }
  - { offsetInCU: 0x18659, offset: 0x18659, size: 0x8, addend: 0x0, symName: __ZNSt3__116allocator_traitsINS_9allocatorINS_12basic_stringIcNS_11char_traitsIcEENS1_IcEEEEEEE7destroyB8ne180100IS6_vEEvRS7_PT_, symObjAddr: 0x3798, symBinAddr: 0x100006894, symSize: 0x2C }
  - { offsetInCU: 0x18696, offset: 0x18696, size: 0x8, addend: 0x0, symName: __ZNSt3__19allocatorINS_12basic_stringIcNS_11char_traitsIcEENS0_IcEEEEE7destroyB8ne180100EPS5_, symObjAddr: 0x37D8, symBinAddr: 0x1000068D4, symSize: 0x28 }
  - { offsetInCU: 0x186CA, offset: 0x186CA, size: 0x8, addend: 0x0, symName: __ZNSt3__19allocatorINS_12basic_stringIcNS_11char_traitsIcEENS0_IcEEEEE10deallocateB8ne180100EPS5_m, symObjAddr: 0x3800, symBinAddr: 0x1000068FC, symSize: 0x44 }
  - { offsetInCU: 0x1870C, offset: 0x1870C, size: 0x8, addend: 0x0, symName: __ZNSt3__117__compressed_pairIPNS_12basic_stringIcNS_11char_traitsIcEENS_9allocatorIcEEEENS4_IS6_EEE6secondB8ne180100Ev, symObjAddr: 0x3844, symBinAddr: 0x100006940, symSize: 0x24 }
  - { offsetInCU: 0x18732, offset: 0x18732, size: 0x8, addend: 0x0, symName: __ZNSt3__122__compressed_pair_elemINS_9allocatorINS_12basic_stringIcNS_11char_traitsIcEENS1_IcEEEEEELi1ELb1EE5__getB8ne180100Ev, symObjAddr: 0x3868, symBinAddr: 0x100006964, symSize: 0x14 }
  - { offsetInCU: 0x18758, offset: 0x18758, size: 0x8, addend: 0x0, symName: __ZNKSt3__16vectorINS_12basic_stringIcNS_11char_traitsIcEENS_9allocatorIcEEEENS4_IS6_EEE9__end_capB8ne180100Ev, symObjAddr: 0x387C, symBinAddr: 0x100006978, symSize: 0x28 }
  - { offsetInCU: 0x1877E, offset: 0x1877E, size: 0x8, addend: 0x0, symName: __ZNKSt3__117__compressed_pairIPNS_12basic_stringIcNS_11char_traitsIcEENS_9allocatorIcEEEENS4_IS6_EEE5firstB8ne180100Ev, symObjAddr: 0x38A4, symBinAddr: 0x1000069A0, symSize: 0x24 }
  - { offsetInCU: 0x187A4, offset: 0x187A4, size: 0x8, addend: 0x0, symName: __ZNKSt3__122__compressed_pair_elemIPNS_12basic_stringIcNS_11char_traitsIcEENS_9allocatorIcEEEELi0ELb0EE5__getB8ne180100Ev, symObjAddr: 0x38C8, symBinAddr: 0x1000069C4, symSize: 0x14 }
  - { offsetInCU: 0x187CA, offset: 0x187CA, size: 0x8, addend: 0x0, symName: __ZNSt3__111char_traitsIcE6lengthB8ne180100EPKc, symObjAddr: 0x3AC8, symBinAddr: 0x100006BC4, symSize: 0x34 }
  - { offsetInCU: 0x1880B, offset: 0x1880B, size: 0x8, addend: 0x0, symName: __ZNKSt3__113basic_ostreamIcNS_11char_traitsIcEEE6sentrycvbB8ne180100Ev, symObjAddr: 0x3AFC, symBinAddr: 0x100006BF8, symSize: 0x1C }
  - { offsetInCU: 0x18831, offset: 0x18831, size: 0x8, addend: 0x0, symName: __ZNSt3__119ostreambuf_iteratorIcNS_11char_traitsIcEEEC1B8ne180100ERNS_13basic_ostreamIcS2_EE, symObjAddr: 0x3D58, symBinAddr: 0x100006E54, symSize: 0x34 }
  - { offsetInCU: 0x18869, offset: 0x18869, size: 0x8, addend: 0x0, symName: __ZNKSt3__18ios_base5flagsB8ne180100Ev, symObjAddr: 0x3D8C, symBinAddr: 0x100006E88, symSize: 0x18 }
  - { offsetInCU: 0x18891, offset: 0x18891, size: 0x8, addend: 0x0, symName: __ZNKSt3__19basic_iosIcNS_11char_traitsIcEEE4fillB8ne180100Ev, symObjAddr: 0x3DA4, symBinAddr: 0x100006EA0, symSize: 0x64 }
  - { offsetInCU: 0x188B9, offset: 0x188B9, size: 0x8, addend: 0x0, symName: __ZNKSt3__119ostreambuf_iteratorIcNS_11char_traitsIcEEE6failedB8ne180100Ev, symObjAddr: 0x3E08, symBinAddr: 0x100006F04, symSize: 0x24 }
  - { offsetInCU: 0x188DF, offset: 0x188DF, size: 0x8, addend: 0x0, symName: __ZNSt3__19basic_iosIcNS_11char_traitsIcEEE8setstateB8ne180100Ej, symObjAddr: 0x3E2C, symBinAddr: 0x100006F28, symSize: 0x2C }
  - { offsetInCU: 0x18914, offset: 0x18914, size: 0x8, addend: 0x0, symName: __ZNKSt3__18ios_base5widthB8ne180100Ev, symObjAddr: 0x3E58, symBinAddr: 0x100006F54, symSize: 0x18 }
  - { offsetInCU: 0x1893C, offset: 0x1893C, size: 0x8, addend: 0x0, symName: __ZNSt3__115basic_streambufIcNS_11char_traitsIcEEE5sputnB8ne180100EPKcl, symObjAddr: 0x3E70, symBinAddr: 0x100006F6C, symSize: 0x3C }
  - { offsetInCU: 0x1897E, offset: 0x1897E, size: 0x8, addend: 0x0, symName: __ZNSt3__112basic_stringIcNS_11char_traitsIcEENS_9allocatorIcEEEC1B8ne180100Emc, symObjAddr: 0x3EAC, symBinAddr: 0x100006FA8, symSize: 0x3C }
  - { offsetInCU: 0x189C6, offset: 0x189C6, size: 0x8, addend: 0x0, symName: __ZNSt3__112basic_stringIcNS_11char_traitsIcEENS_9allocatorIcEEE4dataB8ne180100Ev, symObjAddr: 0x3EE8, symBinAddr: 0x100006FE4, symSize: 0x28 }
  - { offsetInCU: 0x189EC, offset: 0x189EC, size: 0x8, addend: 0x0, symName: __ZNSt3__18ios_base5widthB8ne180100El, symObjAddr: 0x3F10, symBinAddr: 0x10000700C, symSize: 0x2C }
  - { offsetInCU: 0x18A32, offset: 0x18A32, size: 0x8, addend: 0x0, symName: __ZNSt3__112basic_stringIcNS_11char_traitsIcEENS_9allocatorIcEEEC2B8ne180100Emc, symObjAddr: 0x3F3C, symBinAddr: 0x100007038, symSize: 0x4C }
  - { offsetInCU: 0x18A7A, offset: 0x18A7A, size: 0x8, addend: 0x0, symName: __ZNSt3__117__compressed_pairINS_12basic_stringIcNS_11char_traitsIcEENS_9allocatorIcEEE5__repES5_EC1B8ne180100INS_18__default_init_tagESA_EEOT_OT0_, symObjAddr: 0x3F88, symBinAddr: 0x100007084, symSize: 0x3C }
  - { offsetInCU: 0x18AD2, offset: 0x18AD2, size: 0x8, addend: 0x0, symName: __ZNSt3__117__compressed_pairINS_12basic_stringIcNS_11char_traitsIcEENS_9allocatorIcEEE5__repES5_EC2B8ne180100INS_18__default_init_tagESA_EEOT_OT0_, symObjAddr: 0x3FC4, symBinAddr: 0x1000070C0, symSize: 0x3C }
  - { offsetInCU: 0x18B2A, offset: 0x18B2A, size: 0x8, addend: 0x0, symName: __ZNSt3__122__compressed_pair_elemINS_12basic_stringIcNS_11char_traitsIcEENS_9allocatorIcEEE5__repELi0ELb0EEC2B8ne180100ENS_18__default_init_tagE, symObjAddr: 0x4000, symBinAddr: 0x1000070FC, symSize: 0x14 }
  - { offsetInCU: 0x18B5F, offset: 0x18B5F, size: 0x8, addend: 0x0, symName: __ZNSt3__112basic_stringIcNS_11char_traitsIcEENS_9allocatorIcEEE13__get_pointerB8ne180100Ev, symObjAddr: 0x4028, symBinAddr: 0x100007124, symSize: 0x54 }
  - { offsetInCU: 0x18B85, offset: 0x18B85, size: 0x8, addend: 0x0, symName: __ZNKSt3__112basic_stringIcNS_11char_traitsIcEENS_9allocatorIcEEE9__is_longB8ne180100Ev, symObjAddr: 0x407C, symBinAddr: 0x100007178, symSize: 0x38 }
  - { offsetInCU: 0x18BAB, offset: 0x18BAB, size: 0x8, addend: 0x0, symName: __ZNSt3__112basic_stringIcNS_11char_traitsIcEENS_9allocatorIcEEE18__get_long_pointerB8ne180100Ev, symObjAddr: 0x40B4, symBinAddr: 0x1000071B0, symSize: 0x28 }
  - { offsetInCU: 0x18BD1, offset: 0x18BD1, size: 0x8, addend: 0x0, symName: __ZNSt3__112basic_stringIcNS_11char_traitsIcEENS_9allocatorIcEEE19__get_short_pointerB8ne180100Ev, symObjAddr: 0x40DC, symBinAddr: 0x1000071D8, symSize: 0x28 }
  - { offsetInCU: 0x18BF7, offset: 0x18BF7, size: 0x8, addend: 0x0, symName: __ZNKSt3__117__compressed_pairINS_12basic_stringIcNS_11char_traitsIcEENS_9allocatorIcEEE5__repES5_E5firstB8ne180100Ev, symObjAddr: 0x4104, symBinAddr: 0x100007200, symSize: 0x24 }
  - { offsetInCU: 0x18C1D, offset: 0x18C1D, size: 0x8, addend: 0x0, symName: __ZNKSt3__122__compressed_pair_elemINS_12basic_stringIcNS_11char_traitsIcEENS_9allocatorIcEEE5__repELi0ELb0EE5__getB8ne180100Ev, symObjAddr: 0x4128, symBinAddr: 0x100007224, symSize: 0x14 }
  - { offsetInCU: 0x18C43, offset: 0x18C43, size: 0x8, addend: 0x0, symName: __ZNSt3__117__compressed_pairINS_12basic_stringIcNS_11char_traitsIcEENS_9allocatorIcEEE5__repES5_E5firstB8ne180100Ev, symObjAddr: 0x413C, symBinAddr: 0x100007238, symSize: 0x24 }
  - { offsetInCU: 0x18C69, offset: 0x18C69, size: 0x8, addend: 0x0, symName: __ZNSt3__122__compressed_pair_elemINS_12basic_stringIcNS_11char_traitsIcEENS_9allocatorIcEEE5__repELi0ELb0EE5__getB8ne180100Ev, symObjAddr: 0x4160, symBinAddr: 0x10000725C, symSize: 0x14 }
  - { offsetInCU: 0x18C8F, offset: 0x18C8F, size: 0x8, addend: 0x0, symName: __ZNSt3__114pointer_traitsIPcE10pointer_toB8ne180100ERc, symObjAddr: 0x4174, symBinAddr: 0x100007270, symSize: 0x14 }
  - { offsetInCU: 0x18CB2, offset: 0x18CB2, size: 0x8, addend: 0x0, symName: __ZNSt3__119ostreambuf_iteratorIcNS_11char_traitsIcEEEC2B8ne180100ERNS_13basic_ostreamIcS2_EE, symObjAddr: 0x4188, symBinAddr: 0x100007284, symSize: 0x54 }
  - { offsetInCU: 0x18CEA, offset: 0x18CEA, size: 0x8, addend: 0x0, symName: __ZNKSt3__19basic_iosIcNS_11char_traitsIcEEE5rdbufB8ne180100Ev, symObjAddr: 0x41DC, symBinAddr: 0x1000072D8, symSize: 0x24 }
  - { offsetInCU: 0x18D12, offset: 0x18D12, size: 0x8, addend: 0x0, symName: __ZNKSt3__18ios_base5rdbufB8ne180100Ev, symObjAddr: 0x4200, symBinAddr: 0x1000072FC, symSize: 0x18 }
  - { offsetInCU: 0x18D38, offset: 0x18D38, size: 0x8, addend: 0x0, symName: __ZNSt3__111char_traitsIcE11eq_int_typeB8ne180100Eii, symObjAddr: 0x4218, symBinAddr: 0x100007314, symSize: 0x28 }
  - { offsetInCU: 0x18D6B, offset: 0x18D6B, size: 0x8, addend: 0x0, symName: __ZNSt3__111char_traitsIcE3eofB8ne180100Ev, symObjAddr: 0x4240, symBinAddr: 0x10000733C, symSize: 0x8 }
  - { offsetInCU: 0x18D7F, offset: 0x18D7F, size: 0x8, addend: 0x0, symName: __ZNKSt3__19basic_iosIcNS_11char_traitsIcEEE5widenB8ne180100Ec, symObjAddr: 0x4248, symBinAddr: 0x100007344, symSize: 0x84 }
  - { offsetInCU: 0x18DED, offset: 0x18DED, size: 0x8, addend: 0x0, symName: __ZNKSt3__15ctypeIcE5widenB8ne180100Ec, symObjAddr: 0x42F8, symBinAddr: 0x1000073F4, symSize: 0x38 }
  - { offsetInCU: 0x18E22, offset: 0x18E22, size: 0x8, addend: 0x0, symName: __ZNSt3__18ios_base8setstateB8ne180100Ej, symObjAddr: 0x4330, symBinAddr: 0x10000742C, symSize: 0x34 }
  - { offsetInCU: 0x18E59, offset: 0x18E59, size: 0x8, addend: 0x0, symName: __ZNSt3__19basic_iosIcNS_11char_traitsIcEEEC2B8ne180100Ev, symObjAddr: 0x4388, symBinAddr: 0x100007484, symSize: 0x44 }
  - { offsetInCU: 0x18E83, offset: 0x18E83, size: 0x8, addend: 0x0, symName: __ZNSt3__113basic_ostreamIcNS_11char_traitsIcEEEC2B8ne180100EPNS_15basic_streambufIcS2_EE, symObjAddr: 0x43CC, symBinAddr: 0x1000074C8, symSize: 0x60 }
  - { offsetInCU: 0x18EC8, offset: 0x18EC8, size: 0x8, addend: 0x0, symName: __ZNSt3__115basic_stringbufIcNS_11char_traitsIcEENS_9allocatorIcEEEC1B8ne180100Ej, symObjAddr: 0x442C, symBinAddr: 0x100007528, symSize: 0x34 }
  - { offsetInCU: 0x18F01, offset: 0x18F01, size: 0x8, addend: 0x0, symName: __ZNSt3__18ios_baseC2B8ne180100Ev, symObjAddr: 0x4460, symBinAddr: 0x10000755C, symSize: 0x24 }
  - { offsetInCU: 0x18F2B, offset: 0x18F2B, size: 0x8, addend: 0x0, symName: __ZNSt3__19basic_iosIcNS_11char_traitsIcEEE4initB8ne180100EPNS_15basic_streambufIcS2_EE, symObjAddr: 0x4484, symBinAddr: 0x100007580, symSize: 0x44 }
  - { offsetInCU: 0x18F62, offset: 0x18F62, size: 0x8, addend: 0x0, symName: __ZNSt3__115basic_stringbufIcNS_11char_traitsIcEENS_9allocatorIcEEEC2B8ne180100Ej, symObjAddr: 0x44C8, symBinAddr: 0x1000075C4, symSize: 0x60 }
  - { offsetInCU: 0x18F9B, offset: 0x18F9B, size: 0x8, addend: 0x0, symName: __ZNSt3__16vectorI20ECElevatorSimRequestNS_9allocatorIS1_EEE11__make_iterB8ne180100EPS1_, symObjAddr: 0x4528, symBinAddr: 0x100007624, symSize: 0x30 }
  - { offsetInCU: 0x18FD0, offset: 0x18FD0, size: 0x8, addend: 0x0, symName: __ZNSt3__111__wrap_iterIP20ECElevatorSimRequestEC1B8ne180100ES2_, symObjAddr: 0x4558, symBinAddr: 0x100007654, symSize: 0x34 }
  - { offsetInCU: 0x19008, offset: 0x19008, size: 0x8, addend: 0x0, symName: __ZNSt3__111__wrap_iterIP20ECElevatorSimRequestEC2B8ne180100ES2_, symObjAddr: 0x458C, symBinAddr: 0x100007688, symSize: 0x20 }
  - { offsetInCU: 0x19040, offset: 0x19040, size: 0x8, addend: 0x0, symName: __ZNSt3__16vectorINS_12basic_stringIcNS_11char_traitsIcEENS_9allocatorIcEEEENS4_IS6_EEE9__end_capB8ne180100Ev, symObjAddr: 0x45AC, symBinAddr: 0x1000076A8, symSize: 0x28 }
  - { offsetInCU: 0x1906B, offset: 0x1906B, size: 0x8, addend: 0x0, symName: __ZNSt3__16vectorINS_12basic_stringIcNS_11char_traitsIcEENS_9allocatorIcEEEENS4_IS6_EEE22__construct_one_at_endB8ne180100IJS6_EEEvDpOT_, symObjAddr: 0x45D4, symBinAddr: 0x1000076D0, symSize: 0x90 }
  - { offsetInCU: 0x190BA, offset: 0x190BA, size: 0x8, addend: 0x0, symName: __ZNSt3__16vectorINS_12basic_stringIcNS_11char_traitsIcEENS_9allocatorIcEEEENS4_IS6_EEE21__push_back_slow_pathIS6_EEPS6_OT_, symObjAddr: 0x4664, symBinAddr: 0x100007760, symSize: 0xE8 }
  - { offsetInCU: 0x19118, offset: 0x19118, size: 0x8, addend: 0x0, symName: __ZNSt3__117__compressed_pairIPNS_12basic_stringIcNS_11char_traitsIcEENS_9allocatorIcEEEENS4_IS6_EEE5firstB8ne180100Ev, symObjAddr: 0x474C, symBinAddr: 0x100007848, symSize: 0x24 }
  - { offsetInCU: 0x1913E, offset: 0x1913E, size: 0x8, addend: 0x0, symName: __ZNSt3__122__compressed_pair_elemIPNS_12basic_stringIcNS_11char_traitsIcEENS_9allocatorIcEEEELi0ELb0EE5__getB8ne180100Ev, symObjAddr: 0x4770, symBinAddr: 0x10000786C, symSize: 0x14 }
  - { offsetInCU: 0x1917D, offset: 0x1917D, size: 0x8, addend: 0x0, symName: __ZNSt3__16vectorINS_12basic_stringIcNS_11char_traitsIcEENS_9allocatorIcEEEENS4_IS6_EEE21_ConstructTransactionC1B8ne180100ERS8_m, symObjAddr: 0x4784, symBinAddr: 0x100007880, symSize: 0x3C }
  - { offsetInCU: 0x191C5, offset: 0x191C5, size: 0x8, addend: 0x0, symName: __ZNSt3__116allocator_traitsINS_9allocatorINS_12basic_stringIcNS_11char_traitsIcEENS1_IcEEEEEEE9constructB8ne180100IS6_JS6_EvEEvRS7_PT_DpOT0_, symObjAddr: 0x47C0, symBinAddr: 0x1000078BC, symSize: 0x34 }
  - { offsetInCU: 0x1921C, offset: 0x1921C, size: 0x8, addend: 0x0, symName: __ZNSt3__16vectorINS_12basic_stringIcNS_11char_traitsIcEENS_9allocatorIcEEEENS4_IS6_EEE21_ConstructTransactionD1B8ne180100Ev, symObjAddr: 0x47F4, symBinAddr: 0x1000078F0, symSize: 0x2C }
  - { offsetInCU: 0x19246, offset: 0x19246, size: 0x8, addend: 0x0, symName: __ZNSt3__16vectorINS_12basic_stringIcNS_11char_traitsIcEENS_9allocatorIcEEEENS4_IS6_EEE21_ConstructTransactionC2B8ne180100ERS8_m, symObjAddr: 0x4820, symBinAddr: 0x10000791C, symSize: 0x4C }
  - { offsetInCU: 0x1928E, offset: 0x1928E, size: 0x8, addend: 0x0, symName: __ZNSt3__19allocatorINS_12basic_stringIcNS_11char_traitsIcEENS0_IcEEEEE9constructB8ne180100IS5_JS5_EEEvPT_DpOT0_, symObjAddr: 0x486C, symBinAddr: 0x100007968, symSize: 0x30 }
  - { offsetInCU: 0x192E4, offset: 0x192E4, size: 0x8, addend: 0x0, symName: __ZNSt3__112basic_stringIcNS_11char_traitsIcEENS_9allocatorIcEEEC1B8ne180100EOS5_, symObjAddr: 0x489C, symBinAddr: 0x100007998, symSize: 0x34 }
  - { offsetInCU: 0x1931D, offset: 0x1931D, size: 0x8, addend: 0x0, symName: __ZNSt3__112basic_stringIcNS_11char_traitsIcEENS_9allocatorIcEEEC2B8ne180100EOS5_, symObjAddr: 0x48D0, symBinAddr: 0x1000079CC, symSize: 0xB8 }
  - { offsetInCU: 0x19386, offset: 0x19386, size: 0x8, addend: 0x0, symName: __ZZNSt3__112basic_stringIcNS_11char_traitsIcEENS_9allocatorIcEEEC1B8ne180100EOS5_ENKUlRS5_E_clES7_, symObjAddr: 0x4988, symBinAddr: 0x100007A84, symSize: 0x40 }
  - { offsetInCU: 0x193BF, offset: 0x193BF, size: 0x8, addend: 0x0, symName: __ZNKSt3__112basic_stringIcNS_11char_traitsIcEENS_9allocatorIcEEE4sizeB8ne180100Ev, symObjAddr: 0x49C8, symBinAddr: 0x100007AC4, symSize: 0x54 }
  - { offsetInCU: 0x193E5, offset: 0x193E5, size: 0x8, addend: 0x0, symName: __ZNKSt3__112basic_stringIcNS_11char_traitsIcEENS_9allocatorIcEEE17__annotate_deleteB8ne180100Ev, symObjAddr: 0x4A1C, symBinAddr: 0x100007B18, symSize: 0x10 }
  - { offsetInCU: 0x1940B, offset: 0x1940B, size: 0x8, addend: 0x0, symName: __ZNKSt3__112basic_stringIcNS_11char_traitsIcEENS_9allocatorIcEEE15__get_long_sizeB8ne180100Ev, symObjAddr: 0x4A2C, symBinAddr: 0x100007B28, symSize: 0x28 }
  - { offsetInCU: 0x19431, offset: 0x19431, size: 0x8, addend: 0x0, symName: __ZNKSt3__112basic_stringIcNS_11char_traitsIcEENS_9allocatorIcEEE16__get_short_sizeB8ne180100Ev, symObjAddr: 0x4A54, symBinAddr: 0x100007B50, symSize: 0x34 }
  - { offsetInCU: 0x19457, offset: 0x19457, size: 0x8, addend: 0x0, symName: __ZNSt3__16vectorINS_12basic_stringIcNS_11char_traitsIcEENS_9allocatorIcEEEENS4_IS6_EEE21_ConstructTransactionD2B8ne180100Ev, symObjAddr: 0x4A88, symBinAddr: 0x100007B84, symSize: 0x20 }
  - { offsetInCU: 0x19481, offset: 0x19481, size: 0x8, addend: 0x0, symName: __ZNKSt3__16vectorINS_12basic_stringIcNS_11char_traitsIcEENS_9allocatorIcEEEENS4_IS6_EEE11__recommendB8ne180100Em, symObjAddr: 0x4AA8, symBinAddr: 0x100007BA4, symSize: 0xB4 }
  - { offsetInCU: 0x194D6, offset: 0x194D6, size: 0x8, addend: 0x0, symName: __ZNKSt3__16vectorINS_12basic_stringIcNS_11char_traitsIcEENS_9allocatorIcEEEENS4_IS6_EEE4sizeB8ne180100Ev, symObjAddr: 0x4B5C, symBinAddr: 0x100007C58, symSize: 0x28 }
  - { offsetInCU: 0x194FC, offset: 0x194FC, size: 0x8, addend: 0x0, symName: __ZNSt3__114__split_bufferINS_12basic_stringIcNS_11char_traitsIcEENS_9allocatorIcEEEERNS4_IS6_EEEC1EmmS8_, symObjAddr: 0x4B84, symBinAddr: 0x100007C80, symSize: 0x44 }
  - { offsetInCU: 0x19552, offset: 0x19552, size: 0x8, addend: 0x0, symName: __ZNSt3__114__split_bufferINS_12basic_stringIcNS_11char_traitsIcEENS_9allocatorIcEEEERNS4_IS6_EEED1Ev, symObjAddr: 0x4CD8, symBinAddr: 0x100007DD4, symSize: 0x2C }
  - { offsetInCU: 0x1957E, offset: 0x1957E, size: 0x8, addend: 0x0, symName: __ZNKSt3__16vectorINS_12basic_stringIcNS_11char_traitsIcEENS_9allocatorIcEEEENS4_IS6_EEE8max_sizeEv, symObjAddr: 0x4D04, symBinAddr: 0x100007E00, symSize: 0x60 }
  - { offsetInCU: 0x195A6, offset: 0x195A6, size: 0x8, addend: 0x0, symName: __ZNKSt3__16vectorINS_12basic_stringIcNS_11char_traitsIcEENS_9allocatorIcEEEENS4_IS6_EEE20__throw_length_errorB8ne180100Ev, symObjAddr: 0x4D64, symBinAddr: 0x100007E60, symSize: 0x1C }
  - { offsetInCU: 0x195D6, offset: 0x195D6, size: 0x8, addend: 0x0, symName: __ZNSt3__116allocator_traitsINS_9allocatorINS_12basic_stringIcNS_11char_traitsIcEENS1_IcEEEEEEE8max_sizeB8ne180100IS7_vEEmRKS7_, symObjAddr: 0x4DD8, symBinAddr: 0x100007ED4, symSize: 0x24 }
  - { offsetInCU: 0x19604, offset: 0x19604, size: 0x8, addend: 0x0, symName: __ZNKSt3__16vectorINS_12basic_stringIcNS_11char_traitsIcEENS_9allocatorIcEEEENS4_IS6_EEE7__allocB8ne180100Ev, symObjAddr: 0x4DFC, symBinAddr: 0x100007EF8, symSize: 0x28 }
  - { offsetInCU: 0x1962A, offset: 0x1962A, size: 0x8, addend: 0x0, symName: __ZNSt3__114numeric_limitsIlE3maxB8ne180100Ev, symObjAddr: 0x4E24, symBinAddr: 0x100007F20, symSize: 0x14 }
  - { offsetInCU: 0x19652, offset: 0x19652, size: 0x8, addend: 0x0, symName: __ZNKSt3__16__lessIvvEclB8ne180100ImmEEbRKT_RKT0_, symObjAddr: 0x4E8C, symBinAddr: 0x100007F88, symSize: 0x34 }
  - { offsetInCU: 0x196A6, offset: 0x196A6, size: 0x8, addend: 0x0, symName: __ZNKSt3__19allocatorINS_12basic_stringIcNS_11char_traitsIcEENS0_IcEEEEE8max_sizeB8ne180100Ev, symObjAddr: 0x4EC0, symBinAddr: 0x100007FBC, symSize: 0x18 }
  - { offsetInCU: 0x196CC, offset: 0x196CC, size: 0x8, addend: 0x0, symName: __ZNKSt3__117__compressed_pairIPNS_12basic_stringIcNS_11char_traitsIcEENS_9allocatorIcEEEENS4_IS6_EEE6secondB8ne180100Ev, symObjAddr: 0x4ED8, symBinAddr: 0x100007FD4, symSize: 0x24 }
  - { offsetInCU: 0x196F2, offset: 0x196F2, size: 0x8, addend: 0x0, symName: __ZNKSt3__122__compressed_pair_elemINS_9allocatorINS_12basic_stringIcNS_11char_traitsIcEENS1_IcEEEEEELi1ELb1EE5__getB8ne180100Ev, symObjAddr: 0x4EFC, symBinAddr: 0x100007FF8, symSize: 0x14 }
  - { offsetInCU: 0x19718, offset: 0x19718, size: 0x8, addend: 0x0, symName: __ZNSt3__123__libcpp_numeric_limitsIlLb1EE3maxB8ne180100Ev, symObjAddr: 0x4F10, symBinAddr: 0x10000800C, symSize: 0x8 }
  - { offsetInCU: 0x1972C, offset: 0x1972C, size: 0x8, addend: 0x0, symName: __ZNSt12length_errorC1B8ne180100EPKc, symObjAddr: 0x4F7C, symBinAddr: 0x100008078, symSize: 0x34 }
  - { offsetInCU: 0x19764, offset: 0x19764, size: 0x8, addend: 0x0, symName: __ZNSt12length_errorC2B8ne180100EPKc, symObjAddr: 0x4FB0, symBinAddr: 0x1000080AC, symSize: 0x4C }
  - { offsetInCU: 0x1979C, offset: 0x1979C, size: 0x8, addend: 0x0, symName: __ZNSt3__114__split_bufferINS_12basic_stringIcNS_11char_traitsIcEENS_9allocatorIcEEEERNS4_IS6_EEEC2EmmS8_, symObjAddr: 0x5050, symBinAddr: 0x10000814C, symSize: 0xE0 }
  - { offsetInCU: 0x1980F, offset: 0x1980F, size: 0x8, addend: 0x0, symName: __ZNSt3__117__compressed_pairIPNS_12basic_stringIcNS_11char_traitsIcEENS_9allocatorIcEEEERNS4_IS6_EEEC1B8ne180100IDnS9_EEOT_OT0_, symObjAddr: 0x5130, symBinAddr: 0x10000822C, symSize: 0x3C }
  - { offsetInCU: 0x19867, offset: 0x19867, size: 0x8, addend: 0x0, symName: __ZNSt3__114__split_bufferINS_12basic_stringIcNS_11char_traitsIcEENS_9allocatorIcEEEERNS4_IS6_EEE7__allocB8ne180100Ev, symObjAddr: 0x51AC, symBinAddr: 0x1000082A8, symSize: 0x28 }
  - { offsetInCU: 0x1988D, offset: 0x1988D, size: 0x8, addend: 0x0, symName: __ZNSt3__114__split_bufferINS_12basic_stringIcNS_11char_traitsIcEENS_9allocatorIcEEEERNS4_IS6_EEE9__end_capB8ne180100Ev, symObjAddr: 0x51D4, symBinAddr: 0x1000082D0, symSize: 0x28 }
  - { offsetInCU: 0x198B3, offset: 0x198B3, size: 0x8, addend: 0x0, symName: __ZNSt3__117__compressed_pairIPNS_12basic_stringIcNS_11char_traitsIcEENS_9allocatorIcEEEERNS4_IS6_EEEC2B8ne180100IDnS9_EEOT_OT0_, symObjAddr: 0x51FC, symBinAddr: 0x1000082F8, symSize: 0x48 }
  - { offsetInCU: 0x1990B, offset: 0x1990B, size: 0x8, addend: 0x0, symName: __ZNSt3__122__compressed_pair_elemIRNS_9allocatorINS_12basic_stringIcNS_11char_traitsIcEENS1_IcEEEEEELi1ELb0EEC2B8ne180100IS8_vEEOT_, symObjAddr: 0x5244, symBinAddr: 0x100008340, symSize: 0x20 }
  - { offsetInCU: 0x1994D, offset: 0x1994D, size: 0x8, addend: 0x0, symName: __ZNSt3__19allocatorINS_12basic_stringIcNS_11char_traitsIcEENS0_IcEEEEE8allocateB8ne180100Em, symObjAddr: 0x5264, symBinAddr: 0x100008360, symSize: 0x5C }
  - { offsetInCU: 0x19981, offset: 0x19981, size: 0x8, addend: 0x0, symName: __ZNSt3__117__compressed_pairIPNS_12basic_stringIcNS_11char_traitsIcEENS_9allocatorIcEEEERNS4_IS6_EEE6secondB8ne180100Ev, symObjAddr: 0x53A4, symBinAddr: 0x1000084A0, symSize: 0x28 }
  - { offsetInCU: 0x199A7, offset: 0x199A7, size: 0x8, addend: 0x0, symName: __ZNSt3__122__compressed_pair_elemIRNS_9allocatorINS_12basic_stringIcNS_11char_traitsIcEENS1_IcEEEEEELi1ELb0EE5__getB8ne180100Ev, symObjAddr: 0x53CC, symBinAddr: 0x1000084C8, symSize: 0x18 }
  - { offsetInCU: 0x199CD, offset: 0x199CD, size: 0x8, addend: 0x0, symName: __ZNSt3__117__compressed_pairIPNS_12basic_stringIcNS_11char_traitsIcEENS_9allocatorIcEEEERNS4_IS6_EEE5firstB8ne180100Ev, symObjAddr: 0x53E4, symBinAddr: 0x1000084E0, symSize: 0x24 }
  - { offsetInCU: 0x199F3, offset: 0x199F3, size: 0x8, addend: 0x0, symName: __ZNSt3__116reverse_iteratorIPNS_12basic_stringIcNS_11char_traitsIcEENS_9allocatorIcEEEEEC1B8ne180100ES7_, symObjAddr: 0x5534, symBinAddr: 0x100008630, symSize: 0x34 }
  - { offsetInCU: 0x19A2B, offset: 0x19A2B, size: 0x8, addend: 0x0, symName: __ZNKSt3__116reverse_iteratorIPNS_12basic_stringIcNS_11char_traitsIcEENS_9allocatorIcEEEEE4baseB8ne180100Ev, symObjAddr: 0x5568, symBinAddr: 0x100008664, symSize: 0x18 }
  - { offsetInCU: 0x19A51, offset: 0x19A51, size: 0x8, addend: 0x0, symName: __ZNKSt3__16vectorINS_12basic_stringIcNS_11char_traitsIcEENS_9allocatorIcEEEENS4_IS6_EEE14__annotate_newB8ne180100Em, symObjAddr: 0x55BC, symBinAddr: 0x1000086B8, symSize: 0x14 }
  - { offsetInCU: 0x19A86, offset: 0x19A86, size: 0x8, addend: 0x0, symName: __ZNSt3__129_AllocatorDestroyRangeReverseINS_9allocatorINS_12basic_stringIcNS_11char_traitsIcEENS1_IcEEEEEENS_16reverse_iteratorIPS6_EEEC1B8ne180100ERS7_RSA_SD_, symObjAddr: 0x561C, symBinAddr: 0x100008718, symSize: 0x44 }
  - { offsetInCU: 0x19ADD, offset: 0x19ADD, size: 0x8, addend: 0x0, symName: __ZNKSt3__116reverse_iteratorIPNS_12basic_stringIcNS_11char_traitsIcEENS_9allocatorIcEEEEEdeB8ne180100Ev, symObjAddr: 0x56CC, symBinAddr: 0x1000087C8, symSize: 0x28 }
  - { offsetInCU: 0x19B11, offset: 0x19B11, size: 0x8, addend: 0x0, symName: __ZNSt3__116reverse_iteratorIPNS_12basic_stringIcNS_11char_traitsIcEENS_9allocatorIcEEEEEppB8ne180100Ev, symObjAddr: 0x56F4, symBinAddr: 0x1000087F0, symSize: 0x20 }
  - { offsetInCU: 0x19B37, offset: 0x19B37, size: 0x8, addend: 0x0, symName: __ZNSt3__128__exception_guard_exceptionsINS_29_AllocatorDestroyRangeReverseINS_9allocatorINS_12basic_stringIcNS_11char_traitsIcEENS2_IcEEEEEENS_16reverse_iteratorIPS7_EEEEE10__completeB8ne180100Ev, symObjAddr: 0x5714, symBinAddr: 0x100008810, symSize: 0x1C }
  - { offsetInCU: 0x19B5D, offset: 0x19B5D, size: 0x8, addend: 0x0, symName: __ZNSt3__128__exception_guard_exceptionsINS_29_AllocatorDestroyRangeReverseINS_9allocatorINS_12basic_stringIcNS_11char_traitsIcEENS2_IcEEEEEENS_16reverse_iteratorIPS7_EEEEED1B8ne180100Ev, symObjAddr: 0x5730, symBinAddr: 0x10000882C, symSize: 0x2C }
  - { offsetInCU: 0x19B87, offset: 0x19B87, size: 0x8, addend: 0x0, symName: __ZNSt3__128__exception_guard_exceptionsINS_29_AllocatorDestroyRangeReverseINS_9allocatorINS_12basic_stringIcNS_11char_traitsIcEENS2_IcEEEEEENS_16reverse_iteratorIPS7_EEEEEC1B8ne180100ESC_, symObjAddr: 0x575C, symBinAddr: 0x100008858, symSize: 0x34 }
  - { offsetInCU: 0x19BC0, offset: 0x19BC0, size: 0x8, addend: 0x0, symName: __ZNSt3__128__exception_guard_exceptionsINS_29_AllocatorDestroyRangeReverseINS_9allocatorINS_12basic_stringIcNS_11char_traitsIcEENS2_IcEEEEEENS_16reverse_iteratorIPS7_EEEEEC2B8ne180100ESC_, symObjAddr: 0x5790, symBinAddr: 0x10000888C, symSize: 0x30 }
  - { offsetInCU: 0x19BF9, offset: 0x19BF9, size: 0x8, addend: 0x0, symName: __ZNSt3__129_AllocatorDestroyRangeReverseINS_9allocatorINS_12basic_stringIcNS_11char_traitsIcEENS1_IcEEEEEENS_16reverse_iteratorIPS6_EEEC2B8ne180100ERS7_RSA_SD_, symObjAddr: 0x57C0, symBinAddr: 0x1000088BC, symSize: 0x38 }
  - { offsetInCU: 0x19C55, offset: 0x19C55, size: 0x8, addend: 0x0, symName: __ZNSt3__119__to_address_helperINS_16reverse_iteratorIPNS_12basic_stringIcNS_11char_traitsIcEENS_9allocatorIcEEEEEEvE6__callB8ne180100ERKS9_, symObjAddr: 0x57F8, symBinAddr: 0x1000088F4, symSize: 0x38 }
  - { offsetInCU: 0x19C78, offset: 0x19C78, size: 0x8, addend: 0x0, symName: __ZNKSt3__116reverse_iteratorIPNS_12basic_stringIcNS_11char_traitsIcEENS_9allocatorIcEEEEEptB8ne180100Ev, symObjAddr: 0x5830, symBinAddr: 0x10000892C, symSize: 0x24 }
  - { offsetInCU: 0x19C9E, offset: 0x19C9E, size: 0x8, addend: 0x0, symName: __ZNSt3__128__exception_guard_exceptionsINS_29_AllocatorDestroyRangeReverseINS_9allocatorINS_12basic_stringIcNS_11char_traitsIcEENS2_IcEEEEEENS_16reverse_iteratorIPS7_EEEEED2B8ne180100Ev, symObjAddr: 0x5854, symBinAddr: 0x100008950, symSize: 0x50 }
  - { offsetInCU: 0x19CC8, offset: 0x19CC8, size: 0x8, addend: 0x0, symName: __ZNKSt3__129_AllocatorDestroyRangeReverseINS_9allocatorINS_12basic_stringIcNS_11char_traitsIcEENS1_IcEEEEEENS_16reverse_iteratorIPS6_EEEclB8ne180100Ev, symObjAddr: 0x58A4, symBinAddr: 0x1000089A0, symSize: 0xB4 }
  - { offsetInCU: 0x19CEF, offset: 0x19CEF, size: 0x8, addend: 0x0, symName: __ZNSt3__116reverse_iteratorINS0_IPNS_12basic_stringIcNS_11char_traitsIcEENS_9allocatorIcEEEEEEEC1B8ne180100ES8_, symObjAddr: 0x59C8, symBinAddr: 0x100008AC4, symSize: 0x3C }
  - { offsetInCU: 0x19D27, offset: 0x19D27, size: 0x8, addend: 0x0, symName: __ZNSt3__116reverse_iteratorINS0_IPNS_12basic_stringIcNS_11char_traitsIcEENS_9allocatorIcEEEEEEEppB8ne180100Ev, symObjAddr: 0x5A88, symBinAddr: 0x100008B84, symSize: 0x30 }
  - { offsetInCU: 0x19D4D, offset: 0x19D4D, size: 0x8, addend: 0x0, symName: __ZNKSt3__116reverse_iteratorINS0_IPNS_12basic_stringIcNS_11char_traitsIcEENS_9allocatorIcEEEEEEE4baseB8ne180100Ev, symObjAddr: 0x5AB8, symBinAddr: 0x100008BB4, symSize: 0x24 }
  - { offsetInCU: 0x19D78, offset: 0x19D78, size: 0x8, addend: 0x0, symName: __ZNSt3__119__to_address_helperINS_16reverse_iteratorINS1_IPNS_12basic_stringIcNS_11char_traitsIcEENS_9allocatorIcEEEEEEEEvE6__callB8ne180100ERKSA_, symObjAddr: 0x5ADC, symBinAddr: 0x100008BD8, symSize: 0x38 }
  - { offsetInCU: 0x19D9B, offset: 0x19D9B, size: 0x8, addend: 0x0, symName: __ZNKSt3__116reverse_iteratorINS0_IPNS_12basic_stringIcNS_11char_traitsIcEENS_9allocatorIcEEEEEEEptB8ne180100Ev, symObjAddr: 0x5B14, symBinAddr: 0x100008C10, symSize: 0x24 }
  - { offsetInCU: 0x19DC1, offset: 0x19DC1, size: 0x8, addend: 0x0, symName: __ZNKSt3__116reverse_iteratorINS0_IPNS_12basic_stringIcNS_11char_traitsIcEENS_9allocatorIcEEEEEEEdeB8ne180100Ev, symObjAddr: 0x5B38, symBinAddr: 0x100008C34, symSize: 0x34 }
  - { offsetInCU: 0x19DF5, offset: 0x19DF5, size: 0x8, addend: 0x0, symName: __ZNSt3__116reverse_iteratorIPNS_12basic_stringIcNS_11char_traitsIcEENS_9allocatorIcEEEEEmmB8ne180100Ev, symObjAddr: 0x5B6C, symBinAddr: 0x100008C68, symSize: 0x20 }
  - { offsetInCU: 0x19E1B, offset: 0x19E1B, size: 0x8, addend: 0x0, symName: __ZNSt3__116reverse_iteratorINS0_IPNS_12basic_stringIcNS_11char_traitsIcEENS_9allocatorIcEEEEEEEC2B8ne180100ES8_, symObjAddr: 0x5B8C, symBinAddr: 0x100008C88, symSize: 0x2C }
  - { offsetInCU: 0x19E53, offset: 0x19E53, size: 0x8, addend: 0x0, symName: __ZNSt3__116reverse_iteratorIPNS_12basic_stringIcNS_11char_traitsIcEENS_9allocatorIcEEEEEC2B8ne180100ES7_, symObjAddr: 0x5BB8, symBinAddr: 0x100008CB4, symSize: 0x28 }
  - { offsetInCU: 0x19E8B, offset: 0x19E8B, size: 0x8, addend: 0x0, symName: __ZNSt3__114__split_bufferINS_12basic_stringIcNS_11char_traitsIcEENS_9allocatorIcEEEERNS4_IS6_EEED2Ev, symObjAddr: 0x5BE0, symBinAddr: 0x100008CDC, symSize: 0x8C }
  - { offsetInCU: 0x19EB7, offset: 0x19EB7, size: 0x8, addend: 0x0, symName: __ZNSt3__114__split_bufferINS_12basic_stringIcNS_11char_traitsIcEENS_9allocatorIcEEEERNS4_IS6_EEE5clearB8ne180100Ev, symObjAddr: 0x5C6C, symBinAddr: 0x100008D68, symSize: 0x28 }
  - { offsetInCU: 0x19EDD, offset: 0x19EDD, size: 0x8, addend: 0x0, symName: __ZNKSt3__114__split_bufferINS_12basic_stringIcNS_11char_traitsIcEENS_9allocatorIcEEEERNS4_IS6_EEE8capacityB8ne180100Ev, symObjAddr: 0x5C94, symBinAddr: 0x100008D90, symSize: 0x40 }
  - { offsetInCU: 0x19F03, offset: 0x19F03, size: 0x8, addend: 0x0, symName: __ZNSt3__114__split_bufferINS_12basic_stringIcNS_11char_traitsIcEENS_9allocatorIcEEEERNS4_IS6_EEE17__destruct_at_endB8ne180100EPS6_, symObjAddr: 0x5CD4, symBinAddr: 0x100008DD0, symSize: 0x2C }
  - { offsetInCU: 0x19F37, offset: 0x19F37, size: 0x8, addend: 0x0, symName: __ZNSt3__114__split_bufferINS_12basic_stringIcNS_11char_traitsIcEENS_9allocatorIcEEEERNS4_IS6_EEE17__destruct_at_endB8ne180100EPS6_NS_17integral_constantIbLb0EEE, symObjAddr: 0x5D00, symBinAddr: 0x100008DFC, symSize: 0x80 }
  - { offsetInCU: 0x19F78, offset: 0x19F78, size: 0x8, addend: 0x0, symName: __ZNKSt3__114__split_bufferINS_12basic_stringIcNS_11char_traitsIcEENS_9allocatorIcEEEERNS4_IS6_EEE9__end_capB8ne180100Ev, symObjAddr: 0x5D80, symBinAddr: 0x100008E7C, symSize: 0x28 }
  - { offsetInCU: 0x19F9E, offset: 0x19F9E, size: 0x8, addend: 0x0, symName: __ZNKSt3__117__compressed_pairIPNS_12basic_stringIcNS_11char_traitsIcEENS_9allocatorIcEEEERNS4_IS6_EEE5firstB8ne180100Ev, symObjAddr: 0x5DA8, symBinAddr: 0x100008EA4, symSize: 0x24 }
  - { offsetInCU: 0x19FC4, offset: 0x19FC4, size: 0x8, addend: 0x0, symName: __ZNKSt3__16vectorI20ECElevatorSimRequestNS_9allocatorIS1_EEE4sizeB8ne180100Ev, symObjAddr: 0x5DCC, symBinAddr: 0x100008EC8, symSize: 0x28 }
  - { offsetInCU: 0x19FEA, offset: 0x19FEA, size: 0x8, addend: 0x0, symName: __ZNKSt3__16vectorI20ECElevatorSimRequestNS_9allocatorIS1_EEE17__annotate_shrinkB8ne180100Em, symObjAddr: 0x5DF4, symBinAddr: 0x100008EF0, symSize: 0x14 }
  - { offsetInCU: 0x1A01F, offset: 0x1A01F, size: 0x8, addend: 0x0, symName: __ZNSt3__16vectorI20ECElevatorSimRequestNS_9allocatorIS1_EEE22__construct_one_at_endB8ne180100IJRKS1_EEEvDpOT_, symObjAddr: 0x5E08, symBinAddr: 0x100008F04, symSize: 0x90 }
  - { offsetInCU: 0x1A06E, offset: 0x1A06E, size: 0x8, addend: 0x0, symName: __ZNSt3__16vectorI20ECElevatorSimRequestNS_9allocatorIS1_EEE21__push_back_slow_pathIRKS1_EEPS1_OT_, symObjAddr: 0x5E98, symBinAddr: 0x100008F94, symSize: 0xE8 }
  - { offsetInCU: 0x1A0E5, offset: 0x1A0E5, size: 0x8, addend: 0x0, symName: __ZNSt3__16vectorI20ECElevatorSimRequestNS_9allocatorIS1_EEE21_ConstructTransactionC1B8ne180100ERS4_m, symObjAddr: 0x5F80, symBinAddr: 0x10000907C, symSize: 0x3C }
  - { offsetInCU: 0x1A12D, offset: 0x1A12D, size: 0x8, addend: 0x0, symName: __ZNSt3__116allocator_traitsINS_9allocatorI20ECElevatorSimRequestEEE9constructB8ne180100IS2_JRKS2_EvEEvRS3_PT_DpOT0_, symObjAddr: 0x5FBC, symBinAddr: 0x1000090B8, symSize: 0x34 }
  - { offsetInCU: 0x1A184, offset: 0x1A184, size: 0x8, addend: 0x0, symName: __ZNSt3__16vectorI20ECElevatorSimRequestNS_9allocatorIS1_EEE21_ConstructTransactionD1B8ne180100Ev, symObjAddr: 0x5FF0, symBinAddr: 0x1000090EC, symSize: 0x2C }
  - { offsetInCU: 0x1A1AE, offset: 0x1A1AE, size: 0x8, addend: 0x0, symName: __ZNSt3__16vectorI20ECElevatorSimRequestNS_9allocatorIS1_EEE21_ConstructTransactionC2B8ne180100ERS4_m, symObjAddr: 0x601C, symBinAddr: 0x100009118, symSize: 0x4C }
  - { offsetInCU: 0x1A1F6, offset: 0x1A1F6, size: 0x8, addend: 0x0, symName: __ZNSt3__19allocatorI20ECElevatorSimRequestE9constructB8ne180100IS1_JRKS1_EEEvPT_DpOT0_, symObjAddr: 0x6068, symBinAddr: 0x100009164, symSize: 0x30 }
  - { offsetInCU: 0x1A24C, offset: 0x1A24C, size: 0x8, addend: 0x0, symName: __ZN20ECElevatorSimRequestC1ERKS_, symObjAddr: 0x6098, symBinAddr: 0x100009194, symSize: 0x34 }
  - { offsetInCU: 0x1A284, offset: 0x1A284, size: 0x8, addend: 0x0, symName: __ZN20ECElevatorSimRequestC2ERKS_, symObjAddr: 0x60CC, symBinAddr: 0x1000091C8, symSize: 0x6C }
  - { offsetInCU: 0x1A2BC, offset: 0x1A2BC, size: 0x8, addend: 0x0, symName: __ZNSt3__16vectorI20ECElevatorSimRequestNS_9allocatorIS1_EEE21_ConstructTransactionD2B8ne180100Ev, symObjAddr: 0x6138, symBinAddr: 0x100009234, symSize: 0x20 }
  - { offsetInCU: 0x1A2E6, offset: 0x1A2E6, size: 0x8, addend: 0x0, symName: __ZNKSt3__16vectorI20ECElevatorSimRequestNS_9allocatorIS1_EEE11__recommendB8ne180100Em, symObjAddr: 0x6158, symBinAddr: 0x100009254, symSize: 0xB4 }
  - { offsetInCU: 0x1A33B, offset: 0x1A33B, size: 0x8, addend: 0x0, symName: __ZNSt3__114__split_bufferI20ECElevatorSimRequestRNS_9allocatorIS1_EEEC1EmmS4_, symObjAddr: 0x620C, symBinAddr: 0x100009308, symSize: 0x44 }
  - { offsetInCU: 0x1A391, offset: 0x1A391, size: 0x8, addend: 0x0, symName: __ZNSt3__114__split_bufferI20ECElevatorSimRequestRNS_9allocatorIS1_EEED1Ev, symObjAddr: 0x6360, symBinAddr: 0x10000945C, symSize: 0x2C }
  - { offsetInCU: 0x1A3BD, offset: 0x1A3BD, size: 0x8, addend: 0x0, symName: __ZNKSt3__16vectorI20ECElevatorSimRequestNS_9allocatorIS1_EEE8max_sizeEv, symObjAddr: 0x638C, symBinAddr: 0x100009488, symSize: 0x60 }
  - { offsetInCU: 0x1A3E5, offset: 0x1A3E5, size: 0x8, addend: 0x0, symName: __ZNKSt3__16vectorI20ECElevatorSimRequestNS_9allocatorIS1_EEE20__throw_length_errorB8ne180100Ev, symObjAddr: 0x63EC, symBinAddr: 0x1000094E8, symSize: 0x1C }
  - { offsetInCU: 0x1A415, offset: 0x1A415, size: 0x8, addend: 0x0, symName: __ZNSt3__116allocator_traitsINS_9allocatorI20ECElevatorSimRequestEEE8max_sizeB8ne180100IS3_vEEmRKS3_, symObjAddr: 0x6408, symBinAddr: 0x100009504, symSize: 0x24 }
  - { offsetInCU: 0x1A443, offset: 0x1A443, size: 0x8, addend: 0x0, symName: __ZNKSt3__16vectorI20ECElevatorSimRequestNS_9allocatorIS1_EEE7__allocB8ne180100Ev, symObjAddr: 0x642C, symBinAddr: 0x100009528, symSize: 0x28 }
  - { offsetInCU: 0x1A469, offset: 0x1A469, size: 0x8, addend: 0x0, symName: __ZNKSt3__19allocatorI20ECElevatorSimRequestE8max_sizeB8ne180100Ev, symObjAddr: 0x6454, symBinAddr: 0x100009550, symSize: 0x18 }
  - { offsetInCU: 0x1A48F, offset: 0x1A48F, size: 0x8, addend: 0x0, symName: __ZNKSt3__117__compressed_pairIP20ECElevatorSimRequestNS_9allocatorIS1_EEE6secondB8ne180100Ev, symObjAddr: 0x646C, symBinAddr: 0x100009568, symSize: 0x24 }
  - { offsetInCU: 0x1A4B5, offset: 0x1A4B5, size: 0x8, addend: 0x0, symName: __ZNKSt3__122__compressed_pair_elemINS_9allocatorI20ECElevatorSimRequestEELi1ELb1EE5__getB8ne180100Ev, symObjAddr: 0x6490, symBinAddr: 0x10000958C, symSize: 0x14 }
  - { offsetInCU: 0x1A4DB, offset: 0x1A4DB, size: 0x8, addend: 0x0, symName: __ZNSt3__114__split_bufferI20ECElevatorSimRequestRNS_9allocatorIS1_EEEC2EmmS4_, symObjAddr: 0x64A4, symBinAddr: 0x1000095A0, symSize: 0xE0 }
  - { offsetInCU: 0x1A54E, offset: 0x1A54E, size: 0x8, addend: 0x0, symName: __ZNSt3__117__compressed_pairIP20ECElevatorSimRequestRNS_9allocatorIS1_EEEC1B8ne180100IDnS5_EEOT_OT0_, symObjAddr: 0x6584, symBinAddr: 0x100009680, symSize: 0x3C }
  - { offsetInCU: 0x1A5A6, offset: 0x1A5A6, size: 0x8, addend: 0x0, symName: __ZNSt3__114__split_bufferI20ECElevatorSimRequestRNS_9allocatorIS1_EEE7__allocB8ne180100Ev, symObjAddr: 0x6600, symBinAddr: 0x1000096FC, symSize: 0x28 }
  - { offsetInCU: 0x1A5CC, offset: 0x1A5CC, size: 0x8, addend: 0x0, symName: __ZNSt3__114__split_bufferI20ECElevatorSimRequestRNS_9allocatorIS1_EEE9__end_capB8ne180100Ev, symObjAddr: 0x6628, symBinAddr: 0x100009724, symSize: 0x28 }
  - { offsetInCU: 0x1A5F2, offset: 0x1A5F2, size: 0x8, addend: 0x0, symName: __ZNSt3__117__compressed_pairIP20ECElevatorSimRequestRNS_9allocatorIS1_EEEC2B8ne180100IDnS5_EEOT_OT0_, symObjAddr: 0x6650, symBinAddr: 0x10000974C, symSize: 0x48 }
  - { offsetInCU: 0x1A64A, offset: 0x1A64A, size: 0x8, addend: 0x0, symName: __ZNSt3__122__compressed_pair_elemIRNS_9allocatorI20ECElevatorSimRequestEELi1ELb0EEC2B8ne180100IS4_vEEOT_, symObjAddr: 0x6698, symBinAddr: 0x100009794, symSize: 0x20 }
  - { offsetInCU: 0x1A68C, offset: 0x1A68C, size: 0x8, addend: 0x0, symName: __ZNSt3__19allocatorI20ECElevatorSimRequestE8allocateB8ne180100Em, symObjAddr: 0x66B8, symBinAddr: 0x1000097B4, symSize: 0x5C }
  - { offsetInCU: 0x1A6C0, offset: 0x1A6C0, size: 0x8, addend: 0x0, symName: __ZNSt3__117__compressed_pairIP20ECElevatorSimRequestRNS_9allocatorIS1_EEE6secondB8ne180100Ev, symObjAddr: 0x6714, symBinAddr: 0x100009810, symSize: 0x28 }
  - { offsetInCU: 0x1A6E6, offset: 0x1A6E6, size: 0x8, addend: 0x0, symName: __ZNSt3__122__compressed_pair_elemIRNS_9allocatorI20ECElevatorSimRequestEELi1ELb0EE5__getB8ne180100Ev, symObjAddr: 0x673C, symBinAddr: 0x100009838, symSize: 0x18 }
  - { offsetInCU: 0x1A70C, offset: 0x1A70C, size: 0x8, addend: 0x0, symName: __ZNSt3__117__compressed_pairIP20ECElevatorSimRequestRNS_9allocatorIS1_EEE5firstB8ne180100Ev, symObjAddr: 0x6754, symBinAddr: 0x100009850, symSize: 0x24 }
  - { offsetInCU: 0x1A732, offset: 0x1A732, size: 0x8, addend: 0x0, symName: __ZNSt3__116reverse_iteratorIP20ECElevatorSimRequestEC1B8ne180100ES2_, symObjAddr: 0x68A4, symBinAddr: 0x1000099A0, symSize: 0x34 }
  - { offsetInCU: 0x1A76A, offset: 0x1A76A, size: 0x8, addend: 0x0, symName: __ZNKSt3__116reverse_iteratorIP20ECElevatorSimRequestE4baseB8ne180100Ev, symObjAddr: 0x68D8, symBinAddr: 0x1000099D4, symSize: 0x18 }
  - { offsetInCU: 0x1A790, offset: 0x1A790, size: 0x8, addend: 0x0, symName: __ZNKSt3__16vectorI20ECElevatorSimRequestNS_9allocatorIS1_EEE14__annotate_newB8ne180100Em, symObjAddr: 0x692C, symBinAddr: 0x100009A28, symSize: 0x14 }
  - { offsetInCU: 0x1A7C5, offset: 0x1A7C5, size: 0x8, addend: 0x0, symName: __ZNSt3__129_AllocatorDestroyRangeReverseINS_9allocatorI20ECElevatorSimRequestEENS_16reverse_iteratorIPS2_EEEC1B8ne180100ERS3_RS6_S9_, symObjAddr: 0x698C, symBinAddr: 0x100009A88, symSize: 0x44 }
  - { offsetInCU: 0x1A81C, offset: 0x1A81C, size: 0x8, addend: 0x0, symName: __ZNKSt3__116reverse_iteratorIP20ECElevatorSimRequestEdeB8ne180100Ev, symObjAddr: 0x6A3C, symBinAddr: 0x100009B38, symSize: 0x28 }
  - { offsetInCU: 0x1A850, offset: 0x1A850, size: 0x8, addend: 0x0, symName: __ZNSt3__116reverse_iteratorIP20ECElevatorSimRequestEppB8ne180100Ev, symObjAddr: 0x6A64, symBinAddr: 0x100009B60, symSize: 0x20 }
  - { offsetInCU: 0x1A876, offset: 0x1A876, size: 0x8, addend: 0x0, symName: __ZNSt3__128__exception_guard_exceptionsINS_29_AllocatorDestroyRangeReverseINS_9allocatorI20ECElevatorSimRequestEENS_16reverse_iteratorIPS3_EEEEE10__completeB8ne180100Ev, symObjAddr: 0x6A84, symBinAddr: 0x100009B80, symSize: 0x1C }
  - { offsetInCU: 0x1A89C, offset: 0x1A89C, size: 0x8, addend: 0x0, symName: __ZNSt3__128__exception_guard_exceptionsINS_29_AllocatorDestroyRangeReverseINS_9allocatorI20ECElevatorSimRequestEENS_16reverse_iteratorIPS3_EEEEED1B8ne180100Ev, symObjAddr: 0x6AA0, symBinAddr: 0x100009B9C, symSize: 0x2C }
  - { offsetInCU: 0x1A8C6, offset: 0x1A8C6, size: 0x8, addend: 0x0, symName: __ZNSt3__128__exception_guard_exceptionsINS_29_AllocatorDestroyRangeReverseINS_9allocatorI20ECElevatorSimRequestEENS_16reverse_iteratorIPS3_EEEEEC1B8ne180100ES8_, symObjAddr: 0x6ACC, symBinAddr: 0x100009BC8, symSize: 0x34 }
  - { offsetInCU: 0x1A8FF, offset: 0x1A8FF, size: 0x8, addend: 0x0, symName: __ZNSt3__128__exception_guard_exceptionsINS_29_AllocatorDestroyRangeReverseINS_9allocatorI20ECElevatorSimRequestEENS_16reverse_iteratorIPS3_EEEEEC2B8ne180100ES8_, symObjAddr: 0x6B00, symBinAddr: 0x100009BFC, symSize: 0x30 }
  - { offsetInCU: 0x1A938, offset: 0x1A938, size: 0x8, addend: 0x0, symName: __ZNSt3__129_AllocatorDestroyRangeReverseINS_9allocatorI20ECElevatorSimRequestEENS_16reverse_iteratorIPS2_EEEC2B8ne180100ERS3_RS6_S9_, symObjAddr: 0x6B30, symBinAddr: 0x100009C2C, symSize: 0x38 }
  - { offsetInCU: 0x1A994, offset: 0x1A994, size: 0x8, addend: 0x0, symName: __ZNSt3__119__to_address_helperINS_16reverse_iteratorIP20ECElevatorSimRequestEEvE6__callB8ne180100ERKS4_, symObjAddr: 0x6B68, symBinAddr: 0x100009C64, symSize: 0x38 }
  - { offsetInCU: 0x1A9B7, offset: 0x1A9B7, size: 0x8, addend: 0x0, symName: __ZNKSt3__116reverse_iteratorIP20ECElevatorSimRequestEptB8ne180100Ev, symObjAddr: 0x6BA0, symBinAddr: 0x100009C9C, symSize: 0x24 }
  - { offsetInCU: 0x1A9DD, offset: 0x1A9DD, size: 0x8, addend: 0x0, symName: __ZNSt3__128__exception_guard_exceptionsINS_29_AllocatorDestroyRangeReverseINS_9allocatorI20ECElevatorSimRequestEENS_16reverse_iteratorIPS3_EEEEED2B8ne180100Ev, symObjAddr: 0x6BC4, symBinAddr: 0x100009CC0, symSize: 0x50 }
  - { offsetInCU: 0x1AA07, offset: 0x1AA07, size: 0x8, addend: 0x0, symName: __ZNKSt3__129_AllocatorDestroyRangeReverseINS_9allocatorI20ECElevatorSimRequestEENS_16reverse_iteratorIPS2_EEEclB8ne180100Ev, symObjAddr: 0x6C14, symBinAddr: 0x100009D10, symSize: 0xB4 }
  - { offsetInCU: 0x1AA2E, offset: 0x1AA2E, size: 0x8, addend: 0x0, symName: __ZNSt3__116reverse_iteratorINS0_IP20ECElevatorSimRequestEEEC1B8ne180100ES3_, symObjAddr: 0x6D38, symBinAddr: 0x100009E34, symSize: 0x3C }
  - { offsetInCU: 0x1AA66, offset: 0x1AA66, size: 0x8, addend: 0x0, symName: __ZNSt3__116reverse_iteratorINS0_IP20ECElevatorSimRequestEEEppB8ne180100Ev, symObjAddr: 0x6DF8, symBinAddr: 0x100009EF4, symSize: 0x30 }
  - { offsetInCU: 0x1AA8C, offset: 0x1AA8C, size: 0x8, addend: 0x0, symName: __ZNKSt3__116reverse_iteratorINS0_IP20ECElevatorSimRequestEEE4baseB8ne180100Ev, symObjAddr: 0x6E28, symBinAddr: 0x100009F24, symSize: 0x24 }
  - { offsetInCU: 0x1AAB7, offset: 0x1AAB7, size: 0x8, addend: 0x0, symName: __ZNSt3__119__to_address_helperINS_16reverse_iteratorINS1_IP20ECElevatorSimRequestEEEEvE6__callB8ne180100ERKS5_, symObjAddr: 0x6E4C, symBinAddr: 0x100009F48, symSize: 0x38 }
  - { offsetInCU: 0x1AADA, offset: 0x1AADA, size: 0x8, addend: 0x0, symName: __ZNKSt3__116reverse_iteratorINS0_IP20ECElevatorSimRequestEEEptB8ne180100Ev, symObjAddr: 0x6E84, symBinAddr: 0x100009F80, symSize: 0x24 }
  - { offsetInCU: 0x1AB00, offset: 0x1AB00, size: 0x8, addend: 0x0, symName: __ZNKSt3__116reverse_iteratorINS0_IP20ECElevatorSimRequestEEEdeB8ne180100Ev, symObjAddr: 0x6EA8, symBinAddr: 0x100009FA4, symSize: 0x34 }
  - { offsetInCU: 0x1AB34, offset: 0x1AB34, size: 0x8, addend: 0x0, symName: __ZNSt3__116reverse_iteratorIP20ECElevatorSimRequestEmmB8ne180100Ev, symObjAddr: 0x6EDC, symBinAddr: 0x100009FD8, symSize: 0x20 }
  - { offsetInCU: 0x1AB5A, offset: 0x1AB5A, size: 0x8, addend: 0x0, symName: __ZNSt3__116reverse_iteratorINS0_IP20ECElevatorSimRequestEEEC2B8ne180100ES3_, symObjAddr: 0x6EFC, symBinAddr: 0x100009FF8, symSize: 0x2C }
  - { offsetInCU: 0x1AB92, offset: 0x1AB92, size: 0x8, addend: 0x0, symName: __ZNSt3__116reverse_iteratorIP20ECElevatorSimRequestEC2B8ne180100ES2_, symObjAddr: 0x6F28, symBinAddr: 0x10000A024, symSize: 0x28 }
  - { offsetInCU: 0x1ABCA, offset: 0x1ABCA, size: 0x8, addend: 0x0, symName: __ZNSt3__114__split_bufferI20ECElevatorSimRequestRNS_9allocatorIS1_EEED2Ev, symObjAddr: 0x6F50, symBinAddr: 0x10000A04C, symSize: 0x8C }
  - { offsetInCU: 0x1ABF6, offset: 0x1ABF6, size: 0x8, addend: 0x0, symName: __ZNSt3__114__split_bufferI20ECElevatorSimRequestRNS_9allocatorIS1_EEE5clearB8ne180100Ev, symObjAddr: 0x6FDC, symBinAddr: 0x10000A0D8, symSize: 0x28 }
  - { offsetInCU: 0x1AC1C, offset: 0x1AC1C, size: 0x8, addend: 0x0, symName: __ZNKSt3__114__split_bufferI20ECElevatorSimRequestRNS_9allocatorIS1_EEE8capacityB8ne180100Ev, symObjAddr: 0x7004, symBinAddr: 0x10000A100, symSize: 0x40 }
  - { offsetInCU: 0x1AC42, offset: 0x1AC42, size: 0x8, addend: 0x0, symName: __ZNSt3__114__split_bufferI20ECElevatorSimRequestRNS_9allocatorIS1_EEE17__destruct_at_endB8ne180100EPS1_, symObjAddr: 0x7044, symBinAddr: 0x10000A140, symSize: 0x2C }
  - { offsetInCU: 0x1AC76, offset: 0x1AC76, size: 0x8, addend: 0x0, symName: __ZNSt3__114__split_bufferI20ECElevatorSimRequestRNS_9allocatorIS1_EEE17__destruct_at_endB8ne180100EPS1_NS_17integral_constantIbLb0EEE, symObjAddr: 0x7070, symBinAddr: 0x10000A16C, symSize: 0x80 }
  - { offsetInCU: 0x1ACB7, offset: 0x1ACB7, size: 0x8, addend: 0x0, symName: __ZNKSt3__114__split_bufferI20ECElevatorSimRequestRNS_9allocatorIS1_EEE9__end_capB8ne180100Ev, symObjAddr: 0x70F0, symBinAddr: 0x10000A1EC, symSize: 0x28 }
  - { offsetInCU: 0x1ACDD, offset: 0x1ACDD, size: 0x8, addend: 0x0, symName: __ZNKSt3__117__compressed_pairIP20ECElevatorSimRequestRNS_9allocatorIS1_EEE5firstB8ne180100Ev, symObjAddr: 0x7118, symBinAddr: 0x10000A214, symSize: 0x24 }
  - { offsetInCU: 0x1AD03, offset: 0x1AD03, size: 0x8, addend: 0x0, symName: __ZNSt3__112basic_stringIcNS_11char_traitsIcEENS_9allocatorIcEEEC2B8ne180100ILi0EEEPKc, symObjAddr: 0x713C, symBinAddr: 0x10000A238, symSize: 0x58 }
  - { offsetInCU: 0x1AD42, offset: 0x1AD42, size: 0x8, addend: 0x0, symName: __ZNSt3__113basic_istreamIcNS_11char_traitsIcEEEC2B8ne180100EPNS_15basic_streambufIcS2_EE, symObjAddr: 0x7194, symBinAddr: 0x10000A290, symSize: 0x64 }
  - { offsetInCU: 0x1AD87, offset: 0x1AD87, size: 0x8, addend: 0x0, symName: __ZNSt3__113basic_filebufIcNS_11char_traitsIcEEE4openERKNS_12basic_stringIcS2_NS_9allocatorIcEEEEj, symObjAddr: 0x71F8, symBinAddr: 0x10000A2F4, symSize: 0x44 }
  - { offsetInCU: 0x1ADCD, offset: 0x1ADCD, size: 0x8, addend: 0x0, symName: __ZNKSt3__112basic_stringIcNS_11char_traitsIcEENS_9allocatorIcEEE5c_strB8ne180100Ev, symObjAddr: 0x723C, symBinAddr: 0x10000A338, symSize: 0x24 }
  - { offsetInCU: 0x1ADF3, offset: 0x1ADF3, size: 0x8, addend: 0x0, symName: __ZNKSt3__112basic_stringIcNS_11char_traitsIcEENS_9allocatorIcEEE4dataB8ne180100Ev, symObjAddr: 0x7260, symBinAddr: 0x10000A35C, symSize: 0x28 }
  - { offsetInCU: 0x1AE19, offset: 0x1AE19, size: 0x8, addend: 0x0, symName: __ZNKSt3__112basic_stringIcNS_11char_traitsIcEENS_9allocatorIcEEE13__get_pointerB8ne180100Ev, symObjAddr: 0x729C, symBinAddr: 0x10000A398, symSize: 0x54 }
  - { offsetInCU: 0x1AE3F, offset: 0x1AE3F, size: 0x8, addend: 0x0, symName: __ZNKSt3__112basic_stringIcNS_11char_traitsIcEENS_9allocatorIcEEE18__get_long_pointerB8ne180100Ev, symObjAddr: 0x72F0, symBinAddr: 0x10000A3EC, symSize: 0x28 }
  - { offsetInCU: 0x1AE65, offset: 0x1AE65, size: 0x8, addend: 0x0, symName: __ZNKSt3__112basic_stringIcNS_11char_traitsIcEENS_9allocatorIcEEE19__get_short_pointerB8ne180100Ev, symObjAddr: 0x7318, symBinAddr: 0x10000A414, symSize: 0x28 }
  - { offsetInCU: 0x1AE8B, offset: 0x1AE8B, size: 0x8, addend: 0x0, symName: __ZNSt3__114pointer_traitsIPKcE10pointer_toB8ne180100ERS1_, symObjAddr: 0x7340, symBinAddr: 0x10000A43C, symSize: 0x14 }
  - { offsetInCU: 0x1AEAE, offset: 0x1AEAE, size: 0x8, addend: 0x0, symName: __ZNKSt3__19basic_iosIcNS_11char_traitsIcEEE4failB8ne180100Ev, symObjAddr: 0x7354, symBinAddr: 0x10000A450, symSize: 0x28 }
  - { offsetInCU: 0x1AED4, offset: 0x1AED4, size: 0x8, addend: 0x0, symName: __ZNKSt3__18ios_base4failB8ne180100Ev, symObjAddr: 0x737C, symBinAddr: 0x10000A478, symSize: 0x28 }
  - { offsetInCU: 0x1AF1A, offset: 0x1AF1A, size: 0x8, addend: 0x0, symName: __ZNKSt3__113basic_istreamIcNS_11char_traitsIcEEE6sentrycvbB8ne180100Ev, symObjAddr: 0x75DC, symBinAddr: 0x10000A6D8, symSize: 0x1C }
  - { offsetInCU: 0x1AF40, offset: 0x1AF40, size: 0x8, addend: 0x0, symName: __ZNSt3__112basic_stringIcNS_11char_traitsIcEENS_9allocatorIcEEE5clearB8ne180100Ev, symObjAddr: 0x75F8, symBinAddr: 0x10000A6F4, symSize: 0x94 }
  - { offsetInCU: 0x1AF77, offset: 0x1AF77, size: 0x8, addend: 0x0, symName: __ZNSt3__115basic_streambufIcNS_11char_traitsIcEEE6sbumpcB8ne180100Ev, symObjAddr: 0x768C, symBinAddr: 0x10000A788, symSize: 0x78 }
  - { offsetInCU: 0x1AF9D, offset: 0x1AF9D, size: 0x8, addend: 0x0, symName: __ZNSt3__111char_traitsIcE12to_char_typeB8ne180100Ei, symObjAddr: 0x7704, symBinAddr: 0x10000A800, symSize: 0x18 }
  - { offsetInCU: 0x1AFC1, offset: 0x1AFC1, size: 0x8, addend: 0x0, symName: __ZNSt3__111char_traitsIcE2eqEcc, symObjAddr: 0x771C, symBinAddr: 0x10000A818, symSize: 0x28 }
  - { offsetInCU: 0x1AFF2, offset: 0x1AFF2, size: 0x8, addend: 0x0, symName: __ZNKSt3__112basic_stringIcNS_11char_traitsIcEENS_9allocatorIcEEE8max_sizeB8ne180100Ev, symObjAddr: 0x7744, symBinAddr: 0x10000A840, symSize: 0xAC }
  - { offsetInCU: 0x1B044, offset: 0x1B044, size: 0x8, addend: 0x0, symName: __ZNSt3__18ios_base18__setstate_nothrowB8ne180100Ej, symObjAddr: 0x77F0, symBinAddr: 0x10000A8EC, symSize: 0x64 }
  - { offsetInCU: 0x1B079, offset: 0x1B079, size: 0x8, addend: 0x0, symName: __ZNKSt3__19basic_iosIcNS_11char_traitsIcEEE10exceptionsB8ne180100Ev, symObjAddr: 0x7854, symBinAddr: 0x10000A950, symSize: 0x24 }
  - { offsetInCU: 0x1B09F, offset: 0x1B09F, size: 0x8, addend: 0x0, symName: __ZNSt3__111char_traitsIcE6assignB8ne180100ERcRKc, symObjAddr: 0x7878, symBinAddr: 0x10000A974, symSize: 0x24 }
  - { offsetInCU: 0x1B0D0, offset: 0x1B0D0, size: 0x8, addend: 0x0, symName: __ZNSt3__112basic_stringIcNS_11char_traitsIcEENS_9allocatorIcEEE15__set_long_sizeB8ne180100Em, symObjAddr: 0x789C, symBinAddr: 0x10000A998, symSize: 0x38 }
  - { offsetInCU: 0x1B105, offset: 0x1B105, size: 0x8, addend: 0x0, symName: __ZNSt3__112basic_stringIcNS_11char_traitsIcEENS_9allocatorIcEEE16__set_short_sizeB8ne180100Em, symObjAddr: 0x78D4, symBinAddr: 0x10000A9D0, symSize: 0x78 }
  - { offsetInCU: 0x1B13A, offset: 0x1B13A, size: 0x8, addend: 0x0, symName: __ZNKSt3__112basic_stringIcNS_11char_traitsIcEENS_9allocatorIcEEE17__annotate_shrinkB8ne180100Em, symObjAddr: 0x794C, symBinAddr: 0x10000AA48, symSize: 0x14 }
  - { offsetInCU: 0x1B16F, offset: 0x1B16F, size: 0x8, addend: 0x0, symName: __ZNSt3__111char_traitsIcE11to_int_typeB8ne180100Ec, symObjAddr: 0x7960, symBinAddr: 0x10000AA5C, symSize: 0x14 }
  - { offsetInCU: 0x1B19D, offset: 0x1B19D, size: 0x8, addend: 0x0, symName: __ZNSt3__116allocator_traitsINS_9allocatorIcEEE8max_sizeB8ne180100IS2_vEEmRKS2_, symObjAddr: 0x7974, symBinAddr: 0x10000AA70, symSize: 0x24 }
  - { offsetInCU: 0x1B1CB, offset: 0x1B1CB, size: 0x8, addend: 0x0, symName: __ZNKSt3__112basic_stringIcNS_11char_traitsIcEENS_9allocatorIcEEE7__allocB8ne180100Ev, symObjAddr: 0x7998, symBinAddr: 0x10000AA94, symSize: 0x24 }
  - { offsetInCU: 0x1B1F1, offset: 0x1B1F1, size: 0x8, addend: 0x0, symName: __ZNSt3__114numeric_limitsImE3maxB8ne180100Ev, symObjAddr: 0x79BC, symBinAddr: 0x10000AAB8, symSize: 0x14 }
  - { offsetInCU: 0x1B205, offset: 0x1B205, size: 0x8, addend: 0x0, symName: __ZNKSt3__19allocatorIcE8max_sizeB8ne180100Ev, symObjAddr: 0x79D0, symBinAddr: 0x10000AACC, symSize: 0x14 }
  - { offsetInCU: 0x1B22B, offset: 0x1B22B, size: 0x8, addend: 0x0, symName: __ZNKSt3__117__compressed_pairINS_12basic_stringIcNS_11char_traitsIcEENS_9allocatorIcEEE5__repES5_E6secondB8ne180100Ev, symObjAddr: 0x79E4, symBinAddr: 0x10000AAE0, symSize: 0x24 }
  - { offsetInCU: 0x1B251, offset: 0x1B251, size: 0x8, addend: 0x0, symName: __ZNKSt3__122__compressed_pair_elemINS_9allocatorIcEELi1ELb1EE5__getB8ne180100Ev, symObjAddr: 0x7A08, symBinAddr: 0x10000AB04, symSize: 0x14 }
  - { offsetInCU: 0x1B277, offset: 0x1B277, size: 0x8, addend: 0x0, symName: __ZNSt3__123__libcpp_numeric_limitsImLb1EE3maxB8ne180100Ev, symObjAddr: 0x7A1C, symBinAddr: 0x10000AB18, symSize: 0x8 }
  - { offsetInCU: 0x1B28B, offset: 0x1B28B, size: 0x8, addend: 0x0, symName: __ZNKSt3__18ios_base10exceptionsB8ne180100Ev, symObjAddr: 0x7A24, symBinAddr: 0x10000AB20, symSize: 0x18 }
  - { offsetInCU: 0x1B2B3, offset: 0x1B2B3, size: 0x8, addend: 0x0, symName: __ZNSt3__112basic_stringIcNS_11char_traitsIcEENS_9allocatorIcEEE13__fits_in_ssoB8ne180100Em, symObjAddr: 0x7A3C, symBinAddr: 0x10000AB38, symSize: 0x20 }
  - { offsetInCU: 0x1B2D7, offset: 0x1B2D7, size: 0x8, addend: 0x0, symName: __ZNSt3__115basic_stringbufIcNS_11char_traitsIcEENS_9allocatorIcEEEC1B8ne180100ERKNS_12basic_stringIcS2_S4_EEj, symObjAddr: 0x7A5C, symBinAddr: 0x10000AB58, symSize: 0x3C }
  - { offsetInCU: 0x1B31F, offset: 0x1B31F, size: 0x8, addend: 0x0, symName: __ZNSt3__115basic_stringbufIcNS_11char_traitsIcEENS_9allocatorIcEEEC2B8ne180100ERKNS_12basic_stringIcS2_S4_EEj, symObjAddr: 0x7A98, symBinAddr: 0x10000AB94, symSize: 0xB4 }
  - { offsetInCU: 0x1B367, offset: 0x1B367, size: 0x8, addend: 0x0, symName: __ZNKSt3__112basic_stringIcNS_11char_traitsIcEENS_9allocatorIcEEE13get_allocatorB8ne180100Ev, symObjAddr: 0x7B4C, symBinAddr: 0x10000AC48, symSize: 0x24 }
  - { offsetInCU: 0x1B38D, offset: 0x1B38D, size: 0x8, addend: 0x0, symName: __ZNSt3__112basic_stringIcNS_11char_traitsIcEENS_9allocatorIcEEEC1B8ne180100ERKS4_, symObjAddr: 0x7B70, symBinAddr: 0x10000AC6C, symSize: 0x34 }
  - { offsetInCU: 0x1B3C6, offset: 0x1B3C6, size: 0x8, addend: 0x0, symName: __ZNSt3__112basic_stringIcNS_11char_traitsIcEENS_9allocatorIcEEEC2B8ne180100ERKS4_, symObjAddr: 0x7BA4, symBinAddr: 0x10000ACA0, symSize: 0x4C }
  - { offsetInCU: 0x1B3FF, offset: 0x1B3FF, size: 0x8, addend: 0x0, symName: __ZNSt3__117__compressed_pairINS_12basic_stringIcNS_11char_traitsIcEENS_9allocatorIcEEE5__repES5_EC1B8ne180100INS_16__value_init_tagERKS5_EEOT_OT0_, symObjAddr: 0x7BF0, symBinAddr: 0x10000ACEC, symSize: 0x3C }
  - { offsetInCU: 0x1B457, offset: 0x1B457, size: 0x8, addend: 0x0, symName: __ZNSt3__117__compressed_pairINS_12basic_stringIcNS_11char_traitsIcEENS_9allocatorIcEEE5__repES5_EC2B8ne180100INS_16__value_init_tagERKS5_EEOT_OT0_, symObjAddr: 0x7C2C, symBinAddr: 0x10000AD28, symSize: 0x40 }
  - { offsetInCU: 0x1B4AF, offset: 0x1B4AF, size: 0x8, addend: 0x0, symName: __ZNSt3__122__compressed_pair_elemINS_9allocatorIcEELi1ELb1EEC2B8ne180100IRKS2_vEEOT_, symObjAddr: 0x7C6C, symBinAddr: 0x10000AD68, symSize: 0x18 }
  - { offsetInCU: 0x1B4F1, offset: 0x1B4F1, size: 0x8, addend: 0x0, symName: __ZNSt3__16vectorI20ECElevatorSimRequestNS_9allocatorIS1_EEE22__construct_one_at_endB8ne180100IJRiS6_S6_EEEvDpOT_, symObjAddr: 0x7C84, symBinAddr: 0x10000AD80, symSize: 0xA0 }
  - { offsetInCU: 0x1B568, offset: 0x1B568, size: 0x8, addend: 0x0, symName: __ZNSt3__16vectorI20ECElevatorSimRequestNS_9allocatorIS1_EEE24__emplace_back_slow_pathIJRiS6_S6_EEEPS1_DpOT_, symObjAddr: 0x7D24, symBinAddr: 0x10000AE20, symSize: 0xF8 }
  - { offsetInCU: 0x1B5F0, offset: 0x1B5F0, size: 0x8, addend: 0x0, symName: __ZNSt3__116allocator_traitsINS_9allocatorI20ECElevatorSimRequestEEE9constructB8ne180100IS2_JRiS6_S6_EvEEvRS3_PT_DpOT0_, symObjAddr: 0x7E1C, symBinAddr: 0x10000AF18, symSize: 0x44 }
  - { offsetInCU: 0x1B66F, offset: 0x1B66F, size: 0x8, addend: 0x0, symName: __ZNSt3__19allocatorI20ECElevatorSimRequestE9constructB8ne180100IS1_JRiS4_S4_EEEvPT_DpOT0_, symObjAddr: 0x7E60, symBinAddr: 0x10000AF5C, symSize: 0x4C }
  - { offsetInCU: 0x1B6EB, offset: 0x1B6EB, size: 0x8, addend: 0x0, symName: __ZN20ECElevatorSimRequestC1Eiii, symObjAddr: 0x7EAC, symBinAddr: 0x10000AFA8, symSize: 0x44 }
  - { offsetInCU: 0x1B73F, offset: 0x1B73F, size: 0x8, addend: 0x0, symName: __ZN20ECElevatorSimRequestC2Eiii, symObjAddr: 0x7EF0, symBinAddr: 0x10000AFEC, symSize: 0x48 }
  - { offsetInCU: 0x1B793, offset: 0x1B793, size: 0x8, addend: 0x0, symName: __ZNKSt3__16vectorINS_12basic_stringIcNS_11char_traitsIcEENS_9allocatorIcEEEENS4_IS6_EEE11__make_iterB8ne180100EPKS6_, symObjAddr: 0x7F38, symBinAddr: 0x10000B034, symSize: 0x30 }
  - { offsetInCU: 0x1B7C8, offset: 0x1B7C8, size: 0x8, addend: 0x0, symName: __ZNSt3__111__wrap_iterIPKNS_12basic_stringIcNS_11char_traitsIcEENS_9allocatorIcEEEEEC1B8ne180100ES8_, symObjAddr: 0x7F68, symBinAddr: 0x10000B064, symSize: 0x34 }
  - { offsetInCU: 0x1B800, offset: 0x1B800, size: 0x8, addend: 0x0, symName: __ZNSt3__111__wrap_iterIPKNS_12basic_stringIcNS_11char_traitsIcEENS_9allocatorIcEEEEEC2B8ne180100ES8_, symObjAddr: 0x7F9C, symBinAddr: 0x10000B098, symSize: 0x20 }
...
