---
triple:          'arm64-apple-darwin'
binary-path:     a.out
relocations:
  - { offsetInCU: 0x3039, offset: 0x3039, size: 0x8, addend: 0x0, symName: __ZNSt3__124__put_character_sequenceB8ne180100IcNS_11char_traitsIcEEEERNS_13basic_ostreamIT_T0_EES7_PKS4_m, symObjAddr: 0xA28, symBinAddr: 0x100001F3C, symSize: 0x1EC }
  - { offsetInCU: 0x8048, offset: 0x8048, size: 0x8, addend: 0x0, symName: __ZNSt3__1lsB8ne180100INS_11char_traitsIcEEEERNS_13basic_ostreamIcT_EES6_PKc, symObjAddr: 0x6C8, symBinAddr: 0x100001BDC, symSize: 0x48 }
  - { offsetInCU: 0x808E, offset: 0x808E, size: 0x8, addend: 0x0, symName: __ZNSt3__116__pad_and_outputB8ne180100IcNS_11char_traitsIcEEEENS_19ostreambuf_iteratorIT_T0_EES6_PKS4_S8_S8_RNS_8ios_baseES4_, symObjAddr: 0xC64, symBinAddr: 0x100002178, symSize: 0x240 }
  - { offsetInCU: 0x815D, offset: 0x815D, size: 0x8, addend: 0x0, symName: __ZNSt3__112__to_addressB8ne180100IcEEPT_S2_, symObjAddr: 0x11D8, symBinAddr: 0x1000026EC, symSize: 0x14 }
  - { offsetInCU: 0x81C5, offset: 0x81C5, size: 0x8, addend: 0x0, symName: __ZNSt3__19use_facetB8ne180100INS_5ctypeIcEEEERKT_RKNS_6localeE, symObjAddr: 0x1490, symBinAddr: 0x1000029A4, symSize: 0x2C }
  - { offsetInCU: 0x8692, offset: 0x8692, size: 0x8, addend: 0x0, symName: __ZNSt3__118__constexpr_strlenB8ne180100EPKc, symObjAddr: 0x1528, symBinAddr: 0x100002A3C, symSize: 0x24 }
  - { offsetInCU: 0x86BE, offset: 0x86BE, size: 0x8, addend: 0x0, symName: __ZNSt3__112__to_addressB8ne180100I20ECElevatorSimRequestEEPT_S3_, symObjAddr: 0x1954, symBinAddr: 0x100002E68, symSize: 0x14 }
  - { offsetInCU: 0x86F3, offset: 0x86F3, size: 0x8, addend: 0x0, symName: __ZNSt3__13maxB8ne180100ImEERKT_S3_S3_, symObjAddr: 0x1E20, symBinAddr: 0x100003334, symSize: 0x2C }
  - { offsetInCU: 0x8736, offset: 0x8736, size: 0x8, addend: 0x0, symName: __ZNSt3__13minB8ne180100ImEERKT_S3_S3_, symObjAddr: 0x1E4C, symBinAddr: 0x100003360, symSize: 0x2C }
  - { offsetInCU: 0x8963, offset: 0x8963, size: 0x8, addend: 0x0, symName: __ZNSt3__13minB8ne180100ImNS_6__lessIvvEEEERKT_S5_S5_T0_, symObjAddr: 0x1ED8, symBinAddr: 0x1000033EC, symSize: 0x54 }
  - { offsetInCU: 0x8A02, offset: 0x8A02, size: 0x8, addend: 0x0, symName: __ZNSt3__120__throw_length_errorB8ne180100EPKc, symObjAddr: 0x1FB8, symBinAddr: 0x1000034CC, symSize: 0x64 }
  - { offsetInCU: 0x8A2A, offset: 0x8A2A, size: 0x8, addend: 0x0, symName: __ZNSt3__13maxB8ne180100ImNS_6__lessIvvEEEERKT_S5_S5_T0_, symObjAddr: 0x20FC, symBinAddr: 0x100003610, symSize: 0x54 }
  - { offsetInCU: 0x8A84, offset: 0x8A84, size: 0x8, addend: 0x0, symName: __ZNSt3__119__allocate_at_leastB8ne180100INS_9allocatorI20ECElevatorSimRequestEEEENS_19__allocation_resultINS_16allocator_traitsIT_E7pointerEEERS6_m, symObjAddr: 0x226C, symBinAddr: 0x100003780, symSize: 0x40 }
  - { offsetInCU: 0x8AC7, offset: 0x8AC7, size: 0x8, addend: 0x0, symName: __ZNSt3__117__libcpp_allocateB8ne180100Emm, symObjAddr: 0x23F4, symBinAddr: 0x100003908, symSize: 0x60 }
  - { offsetInCU: 0x8B21, offset: 0x8B21, size: 0x8, addend: 0x0, symName: __ZNSt3__124__is_overaligned_for_newB8ne180100Em, symObjAddr: 0x2454, symBinAddr: 0x100003968, symSize: 0x20 }
  - { offsetInCU: 0x8B4F, offset: 0x8B4F, size: 0x8, addend: 0x0, symName: __ZNSt3__121__libcpp_operator_newB8ne180100IJmSt11align_val_tEEEPvDpT_, symObjAddr: 0x2474, symBinAddr: 0x100003988, symSize: 0x2C }
  - { offsetInCU: 0x8B9C, offset: 0x8B9C, size: 0x8, addend: 0x0, symName: __ZNSt3__121__libcpp_operator_newB8ne180100IJmEEEPvDpT_, symObjAddr: 0x24A0, symBinAddr: 0x1000039B4, symSize: 0x24 }
  - { offsetInCU: 0x8BD5, offset: 0x8BD5, size: 0x8, addend: 0x0, symName: __ZNSt3__142__uninitialized_allocator_move_if_noexceptB8ne180100INS_9allocatorI20ECElevatorSimRequestEENS_16reverse_iteratorIPS2_EES6_S6_EET2_RT_T0_T1_S7_, symObjAddr: 0x2538, symBinAddr: 0x100003A4C, symSize: 0x12C }
  - { offsetInCU: 0x8C75, offset: 0x8C75, size: 0x8, addend: 0x0, symName: __ZNSt3__14swapB8ne180100IP20ECElevatorSimRequestEENS_9enable_ifIXaasr21is_move_constructibleIT_EE5valuesr18is_move_assignableIS4_EE5valueEvE4typeERS4_S7_, symObjAddr: 0x26B0, symBinAddr: 0x100003BC4, symSize: 0x3C }
  - { offsetInCU: 0x8CC6, offset: 0x8CC6, size: 0x8, addend: 0x0, symName: __ZNSt3__122__make_exception_guardB8ne180100INS_29_AllocatorDestroyRangeReverseINS_9allocatorI20ECElevatorSimRequestEENS_16reverse_iteratorIPS3_EEEEEENS_28__exception_guard_exceptionsIT_EESA_, symObjAddr: 0x2700, symBinAddr: 0x100003C14, symSize: 0x4C }
  - { offsetInCU: 0x8CFC, offset: 0x8CFC, size: 0x8, addend: 0x0, symName: __ZNSt3__1neB8ne180100IP20ECElevatorSimRequestS2_EEbRKNS_16reverse_iteratorIT_EERKNS3_IT0_EE, symObjAddr: 0x2790, symBinAddr: 0x100003CA4, symSize: 0x48 }
  - { offsetInCU: 0x8D48, offset: 0x8D48, size: 0x8, addend: 0x0, symName: __ZNSt3__112__to_addressB8ne180100INS_16reverse_iteratorIP20ECElevatorSimRequestEEvEEu7__decayIDTclsr19__to_address_helperIT_EE6__callclsr3stdE7declvalIRKS5_EEEEES7_, symObjAddr: 0x27D8, symBinAddr: 0x100003CEC, symSize: 0x24 }
  - { offsetInCU: 0x8DA7, offset: 0x8DA7, size: 0x8, addend: 0x0, symName: __ZNSt3__119__allocator_destroyB8ne180100INS_9allocatorI20ECElevatorSimRequestEENS_16reverse_iteratorINS4_IPS2_EEEES7_EEvRT_T0_T1_, symObjAddr: 0x2A88, symBinAddr: 0x100003F9C, symSize: 0x70 }
  - { offsetInCU: 0x8E0C, offset: 0x8E0C, size: 0x8, addend: 0x0, symName: __ZNSt3__1neB8ne180100INS_16reverse_iteratorIP20ECElevatorSimRequestEES4_EEbRKNS1_IT_EERKNS1_IT0_EE, symObjAddr: 0x2B34, symBinAddr: 0x100004048, symSize: 0x60 }
  - { offsetInCU: 0x8E58, offset: 0x8E58, size: 0x8, addend: 0x0, symName: __ZNSt3__112__to_addressB8ne180100INS_16reverse_iteratorINS1_IP20ECElevatorSimRequestEEEEvEEu7__decayIDTclsr19__to_address_helperIT_EE6__callclsr3stdE7declvalIRKS6_EEEEES8_, symObjAddr: 0x2BC0, symBinAddr: 0x1000040D4, symSize: 0x24 }
  - { offsetInCU: 0x8EB7, offset: 0x8EB7, size: 0x8, addend: 0x0, symName: __ZNSt3__119__libcpp_deallocateB8ne180100EPvmm, symObjAddr: 0x2F68, symBinAddr: 0x10000447C, symSize: 0x60 }
  - { offsetInCU: 0x8F1C, offset: 0x8F1C, size: 0x8, addend: 0x0, symName: __ZNSt3__127__do_deallocate_handle_sizeB8ne180100IJSt11align_val_tEEEvPvmDpT_, symObjAddr: 0x2FC8, symBinAddr: 0x1000044DC, symSize: 0x30 }
  - { offsetInCU: 0x8F6F, offset: 0x8F6F, size: 0x8, addend: 0x0, symName: __ZNSt3__127__do_deallocate_handle_sizeB8ne180100IJEEEvPvmDpT_, symObjAddr: 0x2FF8, symBinAddr: 0x10000450C, symSize: 0x28 }
  - { offsetInCU: 0x8FAD, offset: 0x8FAD, size: 0x8, addend: 0x0, symName: __ZNSt3__124__libcpp_operator_deleteB8ne180100IJPvSt11align_val_tEEEvDpT_, symObjAddr: 0x3020, symBinAddr: 0x100004534, symSize: 0x2C }
  - { offsetInCU: 0x8FF6, offset: 0x8FF6, size: 0x8, addend: 0x0, symName: __ZNSt3__124__libcpp_operator_deleteB8ne180100IJPvEEEvDpT_, symObjAddr: 0x304C, symBinAddr: 0x100004560, symSize: 0x24 }
  - { offsetInCU: 0x902B, offset: 0x902B, size: 0x8, addend: 0x0, symName: __ZNSt3__112__to_addressB8ne180100IiEEPT_S2_, symObjAddr: 0x347C, symBinAddr: 0x100004990, symSize: 0x14 }
  - { offsetInCU: 0x9060, offset: 0x9060, size: 0x8, addend: 0x0, symName: __ZNSt3__119__allocate_at_leastB8ne180100INS_9allocatorIiEEEENS_19__allocation_resultINS_16allocator_traitsIT_E7pointerEEERS5_m, symObjAddr: 0x3AA0, symBinAddr: 0x100004FB4, symSize: 0x40 }
  - { offsetInCU: 0x90A3, offset: 0x90A3, size: 0x8, addend: 0x0, symName: __ZNSt3__142__uninitialized_allocator_move_if_noexceptB8ne180100INS_9allocatorIiEENS_16reverse_iteratorIPiEES5_ivEET1_RT_T0_S9_S6_, symObjAddr: 0x3C64, symBinAddr: 0x100005178, symSize: 0x78 }
  - { offsetInCU: 0x9120, offset: 0x9120, size: 0x8, addend: 0x0, symName: __ZNSt3__14swapB8ne180100IPiEENS_9enable_ifIXaasr21is_move_constructibleIT_EE5valuesr18is_move_assignableIS3_EE5valueEvE4typeERS3_S6_, symObjAddr: 0x3D28, symBinAddr: 0x10000523C, symSize: 0x3C }
  - { offsetInCU: 0x9171, offset: 0x9171, size: 0x8, addend: 0x0, symName: __ZNSt3__14moveB8ne180100INS_16reverse_iteratorIPiEES3_EET0_T_S5_S4_, symObjAddr: 0x3D78, symBinAddr: 0x10000528C, symSize: 0x78 }
  - { offsetInCU: 0x91CB, offset: 0x91CB, size: 0x8, addend: 0x0, symName: __ZNSt3__16__moveB8ne180100INS_17_ClassicAlgPolicyENS_16reverse_iteratorIPiEES4_S4_EENS_4pairIT0_T2_EES6_T1_S7_, symObjAddr: 0x3DF0, symBinAddr: 0x100005304, symSize: 0x64 }
  - { offsetInCU: 0x9237, offset: 0x9237, size: 0x8, addend: 0x0, symName: __ZNSt3__123__dispatch_copy_or_moveB8ne180100INS_17_ClassicAlgPolicyENS_11__move_loopIS1_EENS_14__move_trivialENS_16reverse_iteratorIPiEES7_S7_EENS_4pairIT2_T4_EES9_T3_SA_, symObjAddr: 0x3E54, symBinAddr: 0x100005368, symSize: 0x64 }
  - { offsetInCU: 0x92B5, offset: 0x92B5, size: 0x8, addend: 0x0, symName: __ZNSt3__121__unwrap_and_dispatchB8ne180100INS_10__overloadINS_11__move_loopINS_17_ClassicAlgPolicyEEENS_14__move_trivialEEENS_16reverse_iteratorIPiEES9_S9_Li0EEENS_4pairIT0_T2_EESB_T1_SC_, symObjAddr: 0x3EB8, symBinAddr: 0x1000053CC, symSize: 0x12C }
  - { offsetInCU: 0x9345, offset: 0x9345, size: 0x8, addend: 0x0, symName: __ZNSt3__114__unwrap_rangeB8ne180100INS_16reverse_iteratorIPiEES3_EENS_4pairIT0_S5_EET_S7_, symObjAddr: 0x3FE4, symBinAddr: 0x1000054F8, symSize: 0x84 }
  - { offsetInCU: 0x94C0, offset: 0x94C0, size: 0x8, addend: 0x0, symName: __ZNSt3__113__unwrap_iterB8ne180100INS_16reverse_iteratorIPiEENS_18__unwrap_iter_implIS3_Lb0EEELi0EEEDTclsrT0_8__unwrapclsr3stdE7declvalIT_EEEES7_, symObjAddr: 0x4108, symBinAddr: 0x10000561C, symSize: 0x44 }
  - { offsetInCU: 0x9504, offset: 0x9504, size: 0x8, addend: 0x0, symName: __ZNSt3__19make_pairB8ne180100INS_16reverse_iteratorIPiEES3_EENS_4pairINS_18__unwrap_ref_decayIT_E4typeENS5_IT0_E4typeEEEOS6_OS9_, symObjAddr: 0x414C, symBinAddr: 0x100005660, symSize: 0x38 }
  - { offsetInCU: 0x9553, offset: 0x9553, size: 0x8, addend: 0x0, symName: __ZNSt3__114__rewrap_rangeB8ne180100INS_16reverse_iteratorIPiEES3_EET_S4_T0_, symObjAddr: 0x4184, symBinAddr: 0x100005698, symSize: 0x5C }
  - { offsetInCU: 0x959F, offset: 0x959F, size: 0x8, addend: 0x0, symName: __ZNSt3__113__rewrap_iterB8ne180100INS_16reverse_iteratorIPiEES3_NS_18__unwrap_iter_implIS3_Lb0EEEEET_S6_T0_, symObjAddr: 0x41E0, symBinAddr: 0x1000056F4, symSize: 0x74 }
  - { offsetInCU: 0x95F4, offset: 0x95F4, size: 0x8, addend: 0x0, symName: __ZNSt3__1neB8ne180100IPiS1_EEbRKNS_16reverse_iteratorIT_EERKNS2_IT0_EE, symObjAddr: 0x4254, symBinAddr: 0x100005768, symSize: 0x48 }
  - { offsetInCU: 0x96EA, offset: 0x96EA, size: 0x8, addend: 0x0, symName: __ZNSt3__14endlB8ne180100IcNS_11char_traitsIcEEEERNS_13basic_ostreamIT_T0_EES7_, symObjAddr: 0x47E4, symBinAddr: 0x100005CF8, symSize: 0x58 }
  - { offsetInCU: 0x9A3C, offset: 0x9A3C, size: 0x8, addend: 0x0, symName: __ZSt28__throw_bad_array_new_lengthB8ne180100v, symObjAddr: 0x23C0, symBinAddr: 0x1000038D4, symSize: 0x34 }
  - { offsetInCU: 0xA1D1, offset: 0xA1D1, size: 0x8, addend: 0x0, symName: __ZNSt3__16vectorI20ECElevatorSimRequestNS_9allocatorIS1_EEE26__swap_out_circular_bufferERNS_14__split_bufferIS1_RS3_EE, symObjAddr: 0x1C28, symBinAddr: 0x10000313C, symSize: 0x110 }
  - { offsetInCU: 0xA3CA, offset: 0xA3CA, size: 0x8, addend: 0x0, symName: __ZNSt3__16vectorIiNS_9allocatorIiEEE26__swap_out_circular_bufferERNS_14__split_bufferIiRS2_EE, symObjAddr: 0x36A0, symBinAddr: 0x100004BB4, symSize: 0x110 }
  - { offsetInCU: 0xC71B, offset: 0xC71B, size: 0x8, addend: 0x0, symName: _main, symObjAddr: 0x0, symBinAddr: 0x100001514, symSize: 0x28 }
  - { offsetInCU: 0xC735, offset: 0xC735, size: 0x8, addend: 0x0, symName: __ZL5Test0v, symObjAddr: 0x28, symBinAddr: 0x10000153C, symSize: 0xF8 }
  - { offsetInCU: 0xC796, offset: 0xC796, size: 0x8, addend: 0x0, symName: __ZL5Test1v, symObjAddr: 0x120, symBinAddr: 0x100001634, symSize: 0x138 }
  - { offsetInCU: 0xC806, offset: 0xC806, size: 0x8, addend: 0x0, symName: __ZL5Test2v, symObjAddr: 0x258, symBinAddr: 0x10000176C, symSize: 0x138 }
  - { offsetInCU: 0xC876, offset: 0xC876, size: 0x8, addend: 0x0, symName: __ZL5Test3v, symObjAddr: 0x390, symBinAddr: 0x1000018A4, symSize: 0x17C }
  - { offsetInCU: 0xC8F5, offset: 0xC8F5, size: 0x8, addend: 0x0, symName: __ZL5Test4v, symObjAddr: 0x50C, symBinAddr: 0x100001A20, symSize: 0x1BC }
  - { offsetInCU: 0xC983, offset: 0xC983, size: 0x8, addend: 0x0, symName: __ZN20ECElevatorSimRequestC1Eiii, symObjAddr: 0x710, symBinAddr: 0x100001C24, symSize: 0x44 }
  - { offsetInCU: 0xC9D6, offset: 0xC9D6, size: 0x8, addend: 0x0, symName: __ZNSt3__16vectorI20ECElevatorSimRequestNS_9allocatorIS1_EEEC1B8ne180100Ev, symObjAddr: 0x754, symBinAddr: 0x100001C68, symSize: 0x2C }
  - { offsetInCU: 0xC9FE, offset: 0xC9FE, size: 0x8, addend: 0x0, symName: __ZNSt3__16vectorI20ECElevatorSimRequestNS_9allocatorIS1_EEE9push_backB8ne180100ERKS1_, symObjAddr: 0x780, symBinAddr: 0x100001C94, symSize: 0x90 }
  - { offsetInCU: 0xCA43, offset: 0xCA43, size: 0x8, addend: 0x0, symName: __ZNSt3__16vectorIiNS_9allocatorIiEEEC1B8ne180100Ev, symObjAddr: 0x810, symBinAddr: 0x100001D24, symSize: 0x2C }
  - { offsetInCU: 0xCA6B, offset: 0xCA6B, size: 0x8, addend: 0x0, symName: __ZNSt3__16vectorIiNS_9allocatorIiEEE9push_backB8ne180100EOi, symObjAddr: 0x83C, symBinAddr: 0x100001D50, symSize: 0x90 }
  - { offsetInCU: 0xCAB0, offset: 0xCAB0, size: 0x8, addend: 0x0, symName: __ZL7RunTestiiRNSt3__16vectorI20ECElevatorSimRequestNS_9allocatorIS1_EEEERNS0_IiNS2_IiEEEE, symObjAddr: 0x8CC, symBinAddr: 0x100001DE0, symSize: 0x104 }
  - { offsetInCU: 0xCB49, offset: 0xCB49, size: 0x8, addend: 0x0, symName: __ZNSt3__16vectorIiNS_9allocatorIiEEED1B8ne180100Ev, symObjAddr: 0x9D0, symBinAddr: 0x100001EE4, symSize: 0x2C }
  - { offsetInCU: 0xCB72, offset: 0xCB72, size: 0x8, addend: 0x0, symName: __ZNSt3__16vectorI20ECElevatorSimRequestNS_9allocatorIS1_EEED1B8ne180100Ev, symObjAddr: 0x9FC, symBinAddr: 0x100001F10, symSize: 0x2C }
  - { offsetInCU: 0xCB9B, offset: 0xCB9B, size: 0x8, addend: 0x0, symName: __ZNSt3__111char_traitsIcE6lengthB8ne180100EPKc, symObjAddr: 0xC14, symBinAddr: 0x100002128, symSize: 0x34 }
  - { offsetInCU: 0xCBDC, offset: 0xCBDC, size: 0x8, addend: 0x0, symName: __ZNKSt3__113basic_ostreamIcNS_11char_traitsIcEEE6sentrycvbB8ne180100Ev, symObjAddr: 0xC48, symBinAddr: 0x10000215C, symSize: 0x1C }
  - { offsetInCU: 0xCC01, offset: 0xCC01, size: 0x8, addend: 0x0, symName: __ZNSt3__119ostreambuf_iteratorIcNS_11char_traitsIcEEEC1B8ne180100ERNS_13basic_ostreamIcS2_EE, symObjAddr: 0xEA4, symBinAddr: 0x1000023B8, symSize: 0x34 }
  - { offsetInCU: 0xCC38, offset: 0xCC38, size: 0x8, addend: 0x0, symName: __ZNKSt3__18ios_base5flagsB8ne180100Ev, symObjAddr: 0xED8, symBinAddr: 0x1000023EC, symSize: 0x18 }
  - { offsetInCU: 0xCC5E, offset: 0xCC5E, size: 0x8, addend: 0x0, symName: __ZNKSt3__19basic_iosIcNS_11char_traitsIcEEE4fillB8ne180100Ev, symObjAddr: 0xEF0, symBinAddr: 0x100002404, symSize: 0x64 }
  - { offsetInCU: 0xCC85, offset: 0xCC85, size: 0x8, addend: 0x0, symName: __ZNKSt3__119ostreambuf_iteratorIcNS_11char_traitsIcEEE6failedB8ne180100Ev, symObjAddr: 0xF54, symBinAddr: 0x100002468, symSize: 0x24 }
  - { offsetInCU: 0xCCAA, offset: 0xCCAA, size: 0x8, addend: 0x0, symName: __ZNSt3__19basic_iosIcNS_11char_traitsIcEEE8setstateB8ne180100Ej, symObjAddr: 0xF78, symBinAddr: 0x10000248C, symSize: 0x2C }
  - { offsetInCU: 0xCCDE, offset: 0xCCDE, size: 0x8, addend: 0x0, symName: __ZNKSt3__18ios_base5widthB8ne180100Ev, symObjAddr: 0xFB0, symBinAddr: 0x1000024C4, symSize: 0x18 }
  - { offsetInCU: 0xCD05, offset: 0xCD05, size: 0x8, addend: 0x0, symName: __ZNSt3__115basic_streambufIcNS_11char_traitsIcEEE5sputnB8ne180100EPKcl, symObjAddr: 0xFC8, symBinAddr: 0x1000024DC, symSize: 0x3C }
  - { offsetInCU: 0xCD46, offset: 0xCD46, size: 0x8, addend: 0x0, symName: __ZNSt3__112basic_stringIcNS_11char_traitsIcEENS_9allocatorIcEEEC1B8ne180100Emc, symObjAddr: 0x1004, symBinAddr: 0x100002518, symSize: 0x3C }
  - { offsetInCU: 0xCD8D, offset: 0xCD8D, size: 0x8, addend: 0x0, symName: __ZNSt3__112basic_stringIcNS_11char_traitsIcEENS_9allocatorIcEEE4dataB8ne180100Ev, symObjAddr: 0x1040, symBinAddr: 0x100002554, symSize: 0x28 }
  - { offsetInCU: 0xCDB2, offset: 0xCDB2, size: 0x8, addend: 0x0, symName: __ZNSt3__18ios_base5widthB8ne180100El, symObjAddr: 0x1068, symBinAddr: 0x10000257C, symSize: 0x2C }
  - { offsetInCU: 0xCDF7, offset: 0xCDF7, size: 0x8, addend: 0x0, symName: __ZNSt3__112basic_stringIcNS_11char_traitsIcEENS_9allocatorIcEEEC2B8ne180100Emc, symObjAddr: 0x1094, symBinAddr: 0x1000025A8, symSize: 0x4C }
  - { offsetInCU: 0xCE43, offset: 0xCE43, size: 0x8, addend: 0x0, symName: __ZNSt3__117__compressed_pairINS_12basic_stringIcNS_11char_traitsIcEENS_9allocatorIcEEE5__repES5_EC1B8ne180100INS_18__default_init_tagESA_EEOT_OT0_, symObjAddr: 0x10E0, symBinAddr: 0x1000025F4, symSize: 0x3C }
  - { offsetInCU: 0xCE9A, offset: 0xCE9A, size: 0x8, addend: 0x0, symName: __ZNSt3__117__compressed_pairINS_12basic_stringIcNS_11char_traitsIcEENS_9allocatorIcEEE5__repES5_EC2B8ne180100INS_18__default_init_tagESA_EEOT_OT0_, symObjAddr: 0x111C, symBinAddr: 0x100002630, symSize: 0x3C }
  - { offsetInCU: 0xCEF1, offset: 0xCEF1, size: 0x8, addend: 0x0, symName: __ZNSt3__122__compressed_pair_elemINS_12basic_stringIcNS_11char_traitsIcEENS_9allocatorIcEEE5__repELi0ELb0EEC2B8ne180100ENS_18__default_init_tagE, symObjAddr: 0x1158, symBinAddr: 0x10000266C, symSize: 0x14 }
  - { offsetInCU: 0xCF25, offset: 0xCF25, size: 0x8, addend: 0x0, symName: __ZNSt3__122__compressed_pair_elemINS_9allocatorIcEELi1ELb1EEC2B8ne180100ENS_18__default_init_tagE, symObjAddr: 0x116C, symBinAddr: 0x100002680, symSize: 0x2C }
  - { offsetInCU: 0xCF59, offset: 0xCF59, size: 0x8, addend: 0x0, symName: __ZNSt3__19allocatorIcEC2B8ne180100Ev, symObjAddr: 0x1198, symBinAddr: 0x1000026AC, symSize: 0x2C }
  - { offsetInCU: 0xCF82, offset: 0xCF82, size: 0x8, addend: 0x0, symName: __ZNSt3__116__non_trivial_ifILb1ENS_9allocatorIcEEEC2B8ne180100Ev, symObjAddr: 0x11C4, symBinAddr: 0x1000026D8, symSize: 0x14 }
  - { offsetInCU: 0xCFAB, offset: 0xCFAB, size: 0x8, addend: 0x0, symName: __ZNSt3__112basic_stringIcNS_11char_traitsIcEENS_9allocatorIcEEE13__get_pointerB8ne180100Ev, symObjAddr: 0x11EC, symBinAddr: 0x100002700, symSize: 0x54 }
  - { offsetInCU: 0xCFD0, offset: 0xCFD0, size: 0x8, addend: 0x0, symName: __ZNKSt3__112basic_stringIcNS_11char_traitsIcEENS_9allocatorIcEEE9__is_longB8ne180100Ev, symObjAddr: 0x1240, symBinAddr: 0x100002754, symSize: 0x38 }
  - { offsetInCU: 0xCFF5, offset: 0xCFF5, size: 0x8, addend: 0x0, symName: __ZNSt3__112basic_stringIcNS_11char_traitsIcEENS_9allocatorIcEEE18__get_long_pointerB8ne180100Ev, symObjAddr: 0x1278, symBinAddr: 0x10000278C, symSize: 0x28 }
  - { offsetInCU: 0xD01A, offset: 0xD01A, size: 0x8, addend: 0x0, symName: __ZNSt3__112basic_stringIcNS_11char_traitsIcEENS_9allocatorIcEEE19__get_short_pointerB8ne180100Ev, symObjAddr: 0x12A0, symBinAddr: 0x1000027B4, symSize: 0x28 }
  - { offsetInCU: 0xD03F, offset: 0xD03F, size: 0x8, addend: 0x0, symName: __ZNKSt3__117__compressed_pairINS_12basic_stringIcNS_11char_traitsIcEENS_9allocatorIcEEE5__repES5_E5firstB8ne180100Ev, symObjAddr: 0x12C8, symBinAddr: 0x1000027DC, symSize: 0x24 }
  - { offsetInCU: 0xD064, offset: 0xD064, size: 0x8, addend: 0x0, symName: __ZNKSt3__122__compressed_pair_elemINS_12basic_stringIcNS_11char_traitsIcEENS_9allocatorIcEEE5__repELi0ELb0EE5__getB8ne180100Ev, symObjAddr: 0x12EC, symBinAddr: 0x100002800, symSize: 0x14 }
  - { offsetInCU: 0xD089, offset: 0xD089, size: 0x8, addend: 0x0, symName: __ZNSt3__117__compressed_pairINS_12basic_stringIcNS_11char_traitsIcEENS_9allocatorIcEEE5__repES5_E5firstB8ne180100Ev, symObjAddr: 0x1300, symBinAddr: 0x100002814, symSize: 0x24 }
  - { offsetInCU: 0xD0AE, offset: 0xD0AE, size: 0x8, addend: 0x0, symName: __ZNSt3__122__compressed_pair_elemINS_12basic_stringIcNS_11char_traitsIcEENS_9allocatorIcEEE5__repELi0ELb0EE5__getB8ne180100Ev, symObjAddr: 0x1324, symBinAddr: 0x100002838, symSize: 0x14 }
  - { offsetInCU: 0xD0D3, offset: 0xD0D3, size: 0x8, addend: 0x0, symName: __ZNSt3__114pointer_traitsIPcE10pointer_toB8ne180100ERc, symObjAddr: 0x1338, symBinAddr: 0x10000284C, symSize: 0x14 }
  - { offsetInCU: 0xD0F6, offset: 0xD0F6, size: 0x8, addend: 0x0, symName: __ZNSt3__119ostreambuf_iteratorIcNS_11char_traitsIcEEEC2B8ne180100ERNS_13basic_ostreamIcS2_EE, symObjAddr: 0x134C, symBinAddr: 0x100002860, symSize: 0x54 }
  - { offsetInCU: 0xD12C, offset: 0xD12C, size: 0x8, addend: 0x0, symName: __ZNKSt3__19basic_iosIcNS_11char_traitsIcEEE5rdbufB8ne180100Ev, symObjAddr: 0x13A0, symBinAddr: 0x1000028B4, symSize: 0x24 }
  - { offsetInCU: 0xD153, offset: 0xD153, size: 0x8, addend: 0x0, symName: __ZNKSt3__18ios_base5rdbufB8ne180100Ev, symObjAddr: 0x13C4, symBinAddr: 0x1000028D8, symSize: 0x18 }
  - { offsetInCU: 0xD178, offset: 0xD178, size: 0x8, addend: 0x0, symName: __ZNSt3__111char_traitsIcE11eq_int_typeB8ne180100Eii, symObjAddr: 0x13DC, symBinAddr: 0x1000028F0, symSize: 0x28 }
  - { offsetInCU: 0xD1AB, offset: 0xD1AB, size: 0x8, addend: 0x0, symName: __ZNSt3__111char_traitsIcE3eofB8ne180100Ev, symObjAddr: 0x1404, symBinAddr: 0x100002918, symSize: 0x8 }
  - { offsetInCU: 0xD1BE, offset: 0xD1BE, size: 0x8, addend: 0x0, symName: __ZNKSt3__19basic_iosIcNS_11char_traitsIcEEE5widenB8ne180100Ec, symObjAddr: 0x140C, symBinAddr: 0x100002920, symSize: 0x84 }
  - { offsetInCU: 0xD22B, offset: 0xD22B, size: 0x8, addend: 0x0, symName: __ZNKSt3__15ctypeIcE5widenB8ne180100Ec, symObjAddr: 0x14BC, symBinAddr: 0x1000029D0, symSize: 0x38 }
  - { offsetInCU: 0xD25E, offset: 0xD25E, size: 0x8, addend: 0x0, symName: __ZNSt3__18ios_base8setstateB8ne180100Ej, symObjAddr: 0x14F4, symBinAddr: 0x100002A08, symSize: 0x34 }
  - { offsetInCU: 0xD294, offset: 0xD294, size: 0x8, addend: 0x0, symName: __ZN20ECElevatorSimRequestC2Eiii, symObjAddr: 0x154C, symBinAddr: 0x100002A60, symSize: 0x48 }
  - { offsetInCU: 0xD2E7, offset: 0xD2E7, size: 0x8, addend: 0x0, symName: __ZNSt3__16vectorI20ECElevatorSimRequestNS_9allocatorIS1_EEEC2B8ne180100Ev, symObjAddr: 0x1594, symBinAddr: 0x100002AA8, symSize: 0x4C }
  - { offsetInCU: 0xD315, offset: 0xD315, size: 0x8, addend: 0x0, symName: __ZNSt3__117__compressed_pairIP20ECElevatorSimRequestNS_9allocatorIS1_EEEC1B8ne180100IDnNS_18__default_init_tagEEEOT_OT0_, symObjAddr: 0x15E0, symBinAddr: 0x100002AF4, symSize: 0x3C }
  - { offsetInCU: 0xD36C, offset: 0xD36C, size: 0x8, addend: 0x0, symName: __ZNSt3__117__compressed_pairIP20ECElevatorSimRequestNS_9allocatorIS1_EEEC2B8ne180100IDnNS_18__default_init_tagEEEOT_OT0_, symObjAddr: 0x161C, symBinAddr: 0x100002B30, symSize: 0x40 }
  - { offsetInCU: 0xD3C3, offset: 0xD3C3, size: 0x8, addend: 0x0, symName: __ZNSt3__122__compressed_pair_elemIP20ECElevatorSimRequestLi0ELb0EEC2B8ne180100IDnvEEOT_, symObjAddr: 0x165C, symBinAddr: 0x100002B70, symSize: 0x1C }
  - { offsetInCU: 0xD404, offset: 0xD404, size: 0x8, addend: 0x0, symName: __ZNSt3__122__compressed_pair_elemINS_9allocatorI20ECElevatorSimRequestEELi1ELb1EEC2B8ne180100ENS_18__default_init_tagE, symObjAddr: 0x1678, symBinAddr: 0x100002B8C, symSize: 0x2C }
  - { offsetInCU: 0xD438, offset: 0xD438, size: 0x8, addend: 0x0, symName: __ZNSt3__19allocatorI20ECElevatorSimRequestEC2B8ne180100Ev, symObjAddr: 0x16A4, symBinAddr: 0x100002BB8, symSize: 0x2C }
  - { offsetInCU: 0xD461, offset: 0xD461, size: 0x8, addend: 0x0, symName: __ZNSt3__116__non_trivial_ifILb1ENS_9allocatorI20ECElevatorSimRequestEEEC2B8ne180100Ev, symObjAddr: 0x16D0, symBinAddr: 0x100002BE4, symSize: 0x14 }
  - { offsetInCU: 0xD48A, offset: 0xD48A, size: 0x8, addend: 0x0, symName: __ZNSt3__16vectorI20ECElevatorSimRequestNS_9allocatorIS1_EEE9__end_capB8ne180100Ev, symObjAddr: 0x16E4, symBinAddr: 0x100002BF8, symSize: 0x28 }
  - { offsetInCU: 0xD4AF, offset: 0xD4AF, size: 0x8, addend: 0x0, symName: __ZNSt3__16vectorI20ECElevatorSimRequestNS_9allocatorIS1_EEE22__construct_one_at_endB8ne180100IJRKS1_EEEvDpOT_, symObjAddr: 0x170C, symBinAddr: 0x100002C20, symSize: 0x90 }
  - { offsetInCU: 0xD4FC, offset: 0xD4FC, size: 0x8, addend: 0x0, symName: __ZNSt3__16vectorI20ECElevatorSimRequestNS_9allocatorIS1_EEE21__push_back_slow_pathIRKS1_EEPS1_OT_, symObjAddr: 0x179C, symBinAddr: 0x100002CB0, symSize: 0xE8 }
  - { offsetInCU: 0xD559, offset: 0xD559, size: 0x8, addend: 0x0, symName: __ZNSt3__117__compressed_pairIP20ECElevatorSimRequestNS_9allocatorIS1_EEE5firstB8ne180100Ev, symObjAddr: 0x1884, symBinAddr: 0x100002D98, symSize: 0x24 }
  - { offsetInCU: 0xD57E, offset: 0xD57E, size: 0x8, addend: 0x0, symName: __ZNSt3__122__compressed_pair_elemIP20ECElevatorSimRequestLi0ELb0EE5__getB8ne180100Ev, symObjAddr: 0x18A8, symBinAddr: 0x100002DBC, symSize: 0x14 }
  - { offsetInCU: 0xD5BC, offset: 0xD5BC, size: 0x8, addend: 0x0, symName: __ZNSt3__16vectorI20ECElevatorSimRequestNS_9allocatorIS1_EEE21_ConstructTransactionC1B8ne180100ERS4_m, symObjAddr: 0x18BC, symBinAddr: 0x100002DD0, symSize: 0x3C }
  - { offsetInCU: 0xD603, offset: 0xD603, size: 0x8, addend: 0x0, symName: __ZNSt3__116allocator_traitsINS_9allocatorI20ECElevatorSimRequestEEE9constructB8ne180100IS2_JRKS2_EvEEvRS3_PT_DpOT0_, symObjAddr: 0x18F8, symBinAddr: 0x100002E0C, symSize: 0x34 }
  - { offsetInCU: 0xD65A, offset: 0xD65A, size: 0x8, addend: 0x0, symName: __ZNSt3__16vectorI20ECElevatorSimRequestNS_9allocatorIS1_EEE7__allocB8ne180100Ev, symObjAddr: 0x192C, symBinAddr: 0x100002E40, symSize: 0x28 }
  - { offsetInCU: 0xD67F, offset: 0xD67F, size: 0x8, addend: 0x0, symName: __ZNSt3__16vectorI20ECElevatorSimRequestNS_9allocatorIS1_EEE21_ConstructTransactionD1B8ne180100Ev, symObjAddr: 0x1968, symBinAddr: 0x100002E7C, symSize: 0x2C }
  - { offsetInCU: 0xD6A8, offset: 0xD6A8, size: 0x8, addend: 0x0, symName: __ZNSt3__16vectorI20ECElevatorSimRequestNS_9allocatorIS1_EEE21_ConstructTransactionC2B8ne180100ERS4_m, symObjAddr: 0x1994, symBinAddr: 0x100002EA8, symSize: 0x4C }
  - { offsetInCU: 0xD6EF, offset: 0xD6EF, size: 0x8, addend: 0x0, symName: __ZNSt3__19allocatorI20ECElevatorSimRequestE9constructB8ne180100IS1_JRKS1_EEEvPT_DpOT0_, symObjAddr: 0x19E0, symBinAddr: 0x100002EF4, symSize: 0x30 }
  - { offsetInCU: 0xD744, offset: 0xD744, size: 0x8, addend: 0x0, symName: __ZN20ECElevatorSimRequestC1ERKS_, symObjAddr: 0x1A10, symBinAddr: 0x100002F24, symSize: 0x34 }
  - { offsetInCU: 0xD77B, offset: 0xD77B, size: 0x8, addend: 0x0, symName: __ZN20ECElevatorSimRequestC2ERKS_, symObjAddr: 0x1A44, symBinAddr: 0x100002F58, symSize: 0x6C }
  - { offsetInCU: 0xD7B2, offset: 0xD7B2, size: 0x8, addend: 0x0, symName: __ZNSt3__117__compressed_pairIP20ECElevatorSimRequestNS_9allocatorIS1_EEE6secondB8ne180100Ev, symObjAddr: 0x1AB0, symBinAddr: 0x100002FC4, symSize: 0x24 }
  - { offsetInCU: 0xD7D7, offset: 0xD7D7, size: 0x8, addend: 0x0, symName: __ZNSt3__122__compressed_pair_elemINS_9allocatorI20ECElevatorSimRequestEELi1ELb1EE5__getB8ne180100Ev, symObjAddr: 0x1AD4, symBinAddr: 0x100002FE8, symSize: 0x14 }
  - { offsetInCU: 0xD7FC, offset: 0xD7FC, size: 0x8, addend: 0x0, symName: __ZNSt3__16vectorI20ECElevatorSimRequestNS_9allocatorIS1_EEE21_ConstructTransactionD2B8ne180100Ev, symObjAddr: 0x1AE8, symBinAddr: 0x100002FFC, symSize: 0x20 }
  - { offsetInCU: 0xD824, offset: 0xD824, size: 0x8, addend: 0x0, symName: __ZNKSt3__16vectorI20ECElevatorSimRequestNS_9allocatorIS1_EEE11__recommendB8ne180100Em, symObjAddr: 0x1B08, symBinAddr: 0x10000301C, symSize: 0xB4 }
  - { offsetInCU: 0xD878, offset: 0xD878, size: 0x8, addend: 0x0, symName: __ZNKSt3__16vectorI20ECElevatorSimRequestNS_9allocatorIS1_EEE4sizeB8ne180100Ev, symObjAddr: 0x1BBC, symBinAddr: 0x1000030D0, symSize: 0x28 }
  - { offsetInCU: 0xD89D, offset: 0xD89D, size: 0x8, addend: 0x0, symName: __ZNSt3__114__split_bufferI20ECElevatorSimRequestRNS_9allocatorIS1_EEEC1EmmS4_, symObjAddr: 0x1BE4, symBinAddr: 0x1000030F8, symSize: 0x44 }
  - { offsetInCU: 0xD8F2, offset: 0xD8F2, size: 0x8, addend: 0x0, symName: __ZNSt3__114__split_bufferI20ECElevatorSimRequestRNS_9allocatorIS1_EEED1Ev, symObjAddr: 0x1D38, symBinAddr: 0x10000324C, symSize: 0x2C }
  - { offsetInCU: 0xD91C, offset: 0xD91C, size: 0x8, addend: 0x0, symName: __ZNKSt3__16vectorI20ECElevatorSimRequestNS_9allocatorIS1_EEE8max_sizeEv, symObjAddr: 0x1D64, symBinAddr: 0x100003278, symSize: 0x60 }
  - { offsetInCU: 0xD943, offset: 0xD943, size: 0x8, addend: 0x0, symName: __ZNKSt3__16vectorI20ECElevatorSimRequestNS_9allocatorIS1_EEE20__throw_length_errorB8ne180100Ev, symObjAddr: 0x1DC4, symBinAddr: 0x1000032D8, symSize: 0x1C }
  - { offsetInCU: 0xD968, offset: 0xD968, size: 0x8, addend: 0x0, symName: __ZNKSt3__16vectorI20ECElevatorSimRequestNS_9allocatorIS1_EEE8capacityB8ne180100Ev, symObjAddr: 0x1DE0, symBinAddr: 0x1000032F4, symSize: 0x40 }
  - { offsetInCU: 0xD997, offset: 0xD997, size: 0x8, addend: 0x0, symName: __ZNSt3__116allocator_traitsINS_9allocatorI20ECElevatorSimRequestEEE8max_sizeB8ne180100IS3_vEEmRKS3_, symObjAddr: 0x1E78, symBinAddr: 0x10000338C, symSize: 0x24 }
  - { offsetInCU: 0xD9C5, offset: 0xD9C5, size: 0x8, addend: 0x0, symName: __ZNKSt3__16vectorI20ECElevatorSimRequestNS_9allocatorIS1_EEE7__allocB8ne180100Ev, symObjAddr: 0x1E9C, symBinAddr: 0x1000033B0, symSize: 0x28 }
  - { offsetInCU: 0xD9EA, offset: 0xD9EA, size: 0x8, addend: 0x0, symName: __ZNSt3__114numeric_limitsIlE3maxB8ne180100Ev, symObjAddr: 0x1EC4, symBinAddr: 0x1000033D8, symSize: 0x14 }
  - { offsetInCU: 0xDA12, offset: 0xDA12, size: 0x8, addend: 0x0, symName: __ZNKSt3__16__lessIvvEclB8ne180100ImmEEbRKT_RKT0_, symObjAddr: 0x1F2C, symBinAddr: 0x100003440, symSize: 0x34 }
  - { offsetInCU: 0xDA65, offset: 0xDA65, size: 0x8, addend: 0x0, symName: __ZNKSt3__19allocatorI20ECElevatorSimRequestE8max_sizeB8ne180100Ev, symObjAddr: 0x1F60, symBinAddr: 0x100003474, symSize: 0x18 }
  - { offsetInCU: 0xDA8A, offset: 0xDA8A, size: 0x8, addend: 0x0, symName: __ZNKSt3__117__compressed_pairIP20ECElevatorSimRequestNS_9allocatorIS1_EEE6secondB8ne180100Ev, symObjAddr: 0x1F78, symBinAddr: 0x10000348C, symSize: 0x24 }
  - { offsetInCU: 0xDAAF, offset: 0xDAAF, size: 0x8, addend: 0x0, symName: __ZNKSt3__122__compressed_pair_elemINS_9allocatorI20ECElevatorSimRequestEELi1ELb1EE5__getB8ne180100Ev, symObjAddr: 0x1F9C, symBinAddr: 0x1000034B0, symSize: 0x14 }
  - { offsetInCU: 0xDAD4, offset: 0xDAD4, size: 0x8, addend: 0x0, symName: __ZNSt3__123__libcpp_numeric_limitsIlLb1EE3maxB8ne180100Ev, symObjAddr: 0x1FB0, symBinAddr: 0x1000034C4, symSize: 0x8 }
  - { offsetInCU: 0xDAE8, offset: 0xDAE8, size: 0x8, addend: 0x0, symName: __ZNSt12length_errorC1B8ne180100EPKc, symObjAddr: 0x201C, symBinAddr: 0x100003530, symSize: 0x34 }
  - { offsetInCU: 0xDB1F, offset: 0xDB1F, size: 0x8, addend: 0x0, symName: __ZNSt12length_errorC2B8ne180100EPKc, symObjAddr: 0x2050, symBinAddr: 0x100003564, symSize: 0x4C }
  - { offsetInCU: 0xDB56, offset: 0xDB56, size: 0x8, addend: 0x0, symName: __ZNKSt3__16vectorI20ECElevatorSimRequestNS_9allocatorIS1_EEE9__end_capB8ne180100Ev, symObjAddr: 0x209C, symBinAddr: 0x1000035B0, symSize: 0x28 }
  - { offsetInCU: 0xDB7B, offset: 0xDB7B, size: 0x8, addend: 0x0, symName: __ZNKSt3__117__compressed_pairIP20ECElevatorSimRequestNS_9allocatorIS1_EEE5firstB8ne180100Ev, symObjAddr: 0x20C4, symBinAddr: 0x1000035D8, symSize: 0x24 }
  - { offsetInCU: 0xDBA0, offset: 0xDBA0, size: 0x8, addend: 0x0, symName: __ZNKSt3__122__compressed_pair_elemIP20ECElevatorSimRequestLi0ELb0EE5__getB8ne180100Ev, symObjAddr: 0x20E8, symBinAddr: 0x1000035FC, symSize: 0x14 }
  - { offsetInCU: 0xDBC5, offset: 0xDBC5, size: 0x8, addend: 0x0, symName: __ZNSt3__114__split_bufferI20ECElevatorSimRequestRNS_9allocatorIS1_EEEC2EmmS4_, symObjAddr: 0x2150, symBinAddr: 0x100003664, symSize: 0xE0 }
  - { offsetInCU: 0xDC37, offset: 0xDC37, size: 0x8, addend: 0x0, symName: __ZNSt3__117__compressed_pairIP20ECElevatorSimRequestRNS_9allocatorIS1_EEEC1B8ne180100IDnS5_EEOT_OT0_, symObjAddr: 0x2230, symBinAddr: 0x100003744, symSize: 0x3C }
  - { offsetInCU: 0xDC8E, offset: 0xDC8E, size: 0x8, addend: 0x0, symName: __ZNSt3__114__split_bufferI20ECElevatorSimRequestRNS_9allocatorIS1_EEE7__allocB8ne180100Ev, symObjAddr: 0x22AC, symBinAddr: 0x1000037C0, symSize: 0x28 }
  - { offsetInCU: 0xDCB3, offset: 0xDCB3, size: 0x8, addend: 0x0, symName: __ZNSt3__114__split_bufferI20ECElevatorSimRequestRNS_9allocatorIS1_EEE9__end_capB8ne180100Ev, symObjAddr: 0x22D4, symBinAddr: 0x1000037E8, symSize: 0x28 }
  - { offsetInCU: 0xDCD8, offset: 0xDCD8, size: 0x8, addend: 0x0, symName: __ZNSt3__117__compressed_pairIP20ECElevatorSimRequestRNS_9allocatorIS1_EEEC2B8ne180100IDnS5_EEOT_OT0_, symObjAddr: 0x22FC, symBinAddr: 0x100003810, symSize: 0x48 }
  - { offsetInCU: 0xDD2F, offset: 0xDD2F, size: 0x8, addend: 0x0, symName: __ZNSt3__122__compressed_pair_elemIRNS_9allocatorI20ECElevatorSimRequestEELi1ELb0EEC2B8ne180100IS4_vEEOT_, symObjAddr: 0x2344, symBinAddr: 0x100003858, symSize: 0x20 }
  - { offsetInCU: 0xDD70, offset: 0xDD70, size: 0x8, addend: 0x0, symName: __ZNSt3__19allocatorI20ECElevatorSimRequestE8allocateB8ne180100Em, symObjAddr: 0x2364, symBinAddr: 0x100003878, symSize: 0x5C }
  - { offsetInCU: 0xDDA3, offset: 0xDDA3, size: 0x8, addend: 0x0, symName: __ZNSt3__117__compressed_pairIP20ECElevatorSimRequestRNS_9allocatorIS1_EEE6secondB8ne180100Ev, symObjAddr: 0x24C4, symBinAddr: 0x1000039D8, symSize: 0x28 }
  - { offsetInCU: 0xDDC8, offset: 0xDDC8, size: 0x8, addend: 0x0, symName: __ZNSt3__122__compressed_pair_elemIRNS_9allocatorI20ECElevatorSimRequestEELi1ELb0EE5__getB8ne180100Ev, symObjAddr: 0x24EC, symBinAddr: 0x100003A00, symSize: 0x18 }
  - { offsetInCU: 0xDDED, offset: 0xDDED, size: 0x8, addend: 0x0, symName: __ZNSt3__117__compressed_pairIP20ECElevatorSimRequestRNS_9allocatorIS1_EEE5firstB8ne180100Ev, symObjAddr: 0x2504, symBinAddr: 0x100003A18, symSize: 0x24 }
  - { offsetInCU: 0xDE12, offset: 0xDE12, size: 0x8, addend: 0x0, symName: __ZNKSt3__16vectorI20ECElevatorSimRequestNS_9allocatorIS1_EEE17__annotate_deleteB8ne180100Ev, symObjAddr: 0x2528, symBinAddr: 0x100003A3C, symSize: 0x10 }
  - { offsetInCU: 0xDE37, offset: 0xDE37, size: 0x8, addend: 0x0, symName: __ZNSt3__116reverse_iteratorIP20ECElevatorSimRequestEC1B8ne180100ES2_, symObjAddr: 0x2664, symBinAddr: 0x100003B78, symSize: 0x34 }
  - { offsetInCU: 0xDE6E, offset: 0xDE6E, size: 0x8, addend: 0x0, symName: __ZNKSt3__116reverse_iteratorIP20ECElevatorSimRequestE4baseB8ne180100Ev, symObjAddr: 0x2698, symBinAddr: 0x100003BAC, symSize: 0x18 }
  - { offsetInCU: 0xDE93, offset: 0xDE93, size: 0x8, addend: 0x0, symName: __ZNKSt3__16vectorI20ECElevatorSimRequestNS_9allocatorIS1_EEE14__annotate_newB8ne180100Em, symObjAddr: 0x26EC, symBinAddr: 0x100003C00, symSize: 0x14 }
  - { offsetInCU: 0xDEC7, offset: 0xDEC7, size: 0x8, addend: 0x0, symName: __ZNSt3__129_AllocatorDestroyRangeReverseINS_9allocatorI20ECElevatorSimRequestEENS_16reverse_iteratorIPS2_EEEC1B8ne180100ERS3_RS6_S9_, symObjAddr: 0x274C, symBinAddr: 0x100003C60, symSize: 0x44 }
  - { offsetInCU: 0xDF1D, offset: 0xDF1D, size: 0x8, addend: 0x0, symName: __ZNKSt3__116reverse_iteratorIP20ECElevatorSimRequestEdeB8ne180100Ev, symObjAddr: 0x27FC, symBinAddr: 0x100003D10, symSize: 0x28 }
  - { offsetInCU: 0xDF50, offset: 0xDF50, size: 0x8, addend: 0x0, symName: __ZNSt3__116reverse_iteratorIP20ECElevatorSimRequestEppB8ne180100Ev, symObjAddr: 0x2824, symBinAddr: 0x100003D38, symSize: 0x20 }
  - { offsetInCU: 0xDF75, offset: 0xDF75, size: 0x8, addend: 0x0, symName: __ZNSt3__128__exception_guard_exceptionsINS_29_AllocatorDestroyRangeReverseINS_9allocatorI20ECElevatorSimRequestEENS_16reverse_iteratorIPS3_EEEEE10__completeB8ne180100Ev, symObjAddr: 0x2844, symBinAddr: 0x100003D58, symSize: 0x1C }
  - { offsetInCU: 0xDF9A, offset: 0xDF9A, size: 0x8, addend: 0x0, symName: __ZNSt3__128__exception_guard_exceptionsINS_29_AllocatorDestroyRangeReverseINS_9allocatorI20ECElevatorSimRequestEENS_16reverse_iteratorIPS3_EEEEED1B8ne180100Ev, symObjAddr: 0x2860, symBinAddr: 0x100003D74, symSize: 0x2C }
  - { offsetInCU: 0xDFC3, offset: 0xDFC3, size: 0x8, addend: 0x0, symName: __ZNSt3__128__exception_guard_exceptionsINS_29_AllocatorDestroyRangeReverseINS_9allocatorI20ECElevatorSimRequestEENS_16reverse_iteratorIPS3_EEEEEC1B8ne180100ES8_, symObjAddr: 0x288C, symBinAddr: 0x100003DA0, symSize: 0x34 }
  - { offsetInCU: 0xDFFB, offset: 0xDFFB, size: 0x8, addend: 0x0, symName: __ZNSt3__128__exception_guard_exceptionsINS_29_AllocatorDestroyRangeReverseINS_9allocatorI20ECElevatorSimRequestEENS_16reverse_iteratorIPS3_EEEEEC2B8ne180100ES8_, symObjAddr: 0x28C0, symBinAddr: 0x100003DD4, symSize: 0x30 }
  - { offsetInCU: 0xE033, offset: 0xE033, size: 0x8, addend: 0x0, symName: __ZNSt3__129_AllocatorDestroyRangeReverseINS_9allocatorI20ECElevatorSimRequestEENS_16reverse_iteratorIPS2_EEEC2B8ne180100ERS3_RS6_S9_, symObjAddr: 0x28F0, symBinAddr: 0x100003E04, symSize: 0x38 }
  - { offsetInCU: 0xE08E, offset: 0xE08E, size: 0x8, addend: 0x0, symName: __ZNSt3__119__to_address_helperINS_16reverse_iteratorIP20ECElevatorSimRequestEEvE6__callB8ne180100ERKS4_, symObjAddr: 0x2928, symBinAddr: 0x100003E3C, symSize: 0x38 }
  - { offsetInCU: 0xE0B1, offset: 0xE0B1, size: 0x8, addend: 0x0, symName: __ZNKSt3__116reverse_iteratorIP20ECElevatorSimRequestEptB8ne180100Ev, symObjAddr: 0x2960, symBinAddr: 0x100003E74, symSize: 0x24 }
  - { offsetInCU: 0xE0D6, offset: 0xE0D6, size: 0x8, addend: 0x0, symName: __ZNSt3__128__exception_guard_exceptionsINS_29_AllocatorDestroyRangeReverseINS_9allocatorI20ECElevatorSimRequestEENS_16reverse_iteratorIPS3_EEEEED2B8ne180100Ev, symObjAddr: 0x2984, symBinAddr: 0x100003E98, symSize: 0x50 }
  - { offsetInCU: 0xE0FF, offset: 0xE0FF, size: 0x8, addend: 0x0, symName: __ZNKSt3__129_AllocatorDestroyRangeReverseINS_9allocatorI20ECElevatorSimRequestEENS_16reverse_iteratorIPS2_EEEclB8ne180100Ev, symObjAddr: 0x29D4, symBinAddr: 0x100003EE8, symSize: 0xB4 }
  - { offsetInCU: 0xE125, offset: 0xE125, size: 0x8, addend: 0x0, symName: __ZNSt3__116reverse_iteratorINS0_IP20ECElevatorSimRequestEEEC1B8ne180100ES3_, symObjAddr: 0x2AF8, symBinAddr: 0x10000400C, symSize: 0x3C }
  - { offsetInCU: 0xE15C, offset: 0xE15C, size: 0x8, addend: 0x0, symName: __ZNSt3__116allocator_traitsINS_9allocatorI20ECElevatorSimRequestEEE7destroyB8ne180100IS2_vEEvRS3_PT_, symObjAddr: 0x2B94, symBinAddr: 0x1000040A8, symSize: 0x2C }
  - { offsetInCU: 0xE199, offset: 0xE199, size: 0x8, addend: 0x0, symName: __ZNSt3__116reverse_iteratorINS0_IP20ECElevatorSimRequestEEEppB8ne180100Ev, symObjAddr: 0x2BE4, symBinAddr: 0x1000040F8, symSize: 0x30 }
  - { offsetInCU: 0xE1BE, offset: 0xE1BE, size: 0x8, addend: 0x0, symName: __ZNKSt3__116reverse_iteratorINS0_IP20ECElevatorSimRequestEEE4baseB8ne180100Ev, symObjAddr: 0x2C14, symBinAddr: 0x100004128, symSize: 0x24 }
  - { offsetInCU: 0xE1E3, offset: 0xE1E3, size: 0x8, addend: 0x0, symName: __ZNSt3__19allocatorI20ECElevatorSimRequestE7destroyB8ne180100EPS1_, symObjAddr: 0x2C38, symBinAddr: 0x10000414C, symSize: 0x14 }
  - { offsetInCU: 0xE21B, offset: 0xE21B, size: 0x8, addend: 0x0, symName: __ZNSt3__119__to_address_helperINS_16reverse_iteratorINS1_IP20ECElevatorSimRequestEEEEvE6__callB8ne180100ERKS5_, symObjAddr: 0x2C4C, symBinAddr: 0x100004160, symSize: 0x38 }
  - { offsetInCU: 0xE23E, offset: 0xE23E, size: 0x8, addend: 0x0, symName: __ZNKSt3__116reverse_iteratorINS0_IP20ECElevatorSimRequestEEEptB8ne180100Ev, symObjAddr: 0x2C84, symBinAddr: 0x100004198, symSize: 0x24 }
  - { offsetInCU: 0xE263, offset: 0xE263, size: 0x8, addend: 0x0, symName: __ZNKSt3__116reverse_iteratorINS0_IP20ECElevatorSimRequestEEEdeB8ne180100Ev, symObjAddr: 0x2CA8, symBinAddr: 0x1000041BC, symSize: 0x34 }
  - { offsetInCU: 0xE296, offset: 0xE296, size: 0x8, addend: 0x0, symName: __ZNSt3__116reverse_iteratorIP20ECElevatorSimRequestEmmB8ne180100Ev, symObjAddr: 0x2CDC, symBinAddr: 0x1000041F0, symSize: 0x20 }
  - { offsetInCU: 0xE2BB, offset: 0xE2BB, size: 0x8, addend: 0x0, symName: __ZNSt3__116reverse_iteratorINS0_IP20ECElevatorSimRequestEEEC2B8ne180100ES3_, symObjAddr: 0x2CFC, symBinAddr: 0x100004210, symSize: 0x2C }
  - { offsetInCU: 0xE2F2, offset: 0xE2F2, size: 0x8, addend: 0x0, symName: __ZNSt3__116reverse_iteratorIP20ECElevatorSimRequestEC2B8ne180100ES2_, symObjAddr: 0x2D28, symBinAddr: 0x10000423C, symSize: 0x28 }
  - { offsetInCU: 0xE329, offset: 0xE329, size: 0x8, addend: 0x0, symName: __ZNSt3__114__split_bufferI20ECElevatorSimRequestRNS_9allocatorIS1_EEED2Ev, symObjAddr: 0x2D50, symBinAddr: 0x100004264, symSize: 0x8C }
  - { offsetInCU: 0xE354, offset: 0xE354, size: 0x8, addend: 0x0, symName: __ZNSt3__114__split_bufferI20ECElevatorSimRequestRNS_9allocatorIS1_EEE5clearB8ne180100Ev, symObjAddr: 0x2DDC, symBinAddr: 0x1000042F0, symSize: 0x28 }
  - { offsetInCU: 0xE379, offset: 0xE379, size: 0x8, addend: 0x0, symName: __ZNSt3__116allocator_traitsINS_9allocatorI20ECElevatorSimRequestEEE10deallocateB8ne180100ERS3_PS2_m, symObjAddr: 0x2E04, symBinAddr: 0x100004318, symSize: 0x34 }
  - { offsetInCU: 0xE3BB, offset: 0xE3BB, size: 0x8, addend: 0x0, symName: __ZNKSt3__114__split_bufferI20ECElevatorSimRequestRNS_9allocatorIS1_EEE8capacityB8ne180100Ev, symObjAddr: 0x2E38, symBinAddr: 0x10000434C, symSize: 0x40 }
  - { offsetInCU: 0xE3E0, offset: 0xE3E0, size: 0x8, addend: 0x0, symName: __ZNSt3__114__split_bufferI20ECElevatorSimRequestRNS_9allocatorIS1_EEE17__destruct_at_endB8ne180100EPS1_, symObjAddr: 0x2E78, symBinAddr: 0x10000438C, symSize: 0x2C }
  - { offsetInCU: 0xE412, offset: 0xE412, size: 0x8, addend: 0x0, symName: __ZNSt3__114__split_bufferI20ECElevatorSimRequestRNS_9allocatorIS1_EEE17__destruct_at_endB8ne180100EPS1_NS_17integral_constantIbLb0EEE, symObjAddr: 0x2EA4, symBinAddr: 0x1000043B8, symSize: 0x80 }
  - { offsetInCU: 0xE452, offset: 0xE452, size: 0x8, addend: 0x0, symName: __ZNSt3__19allocatorI20ECElevatorSimRequestE10deallocateB8ne180100EPS1_m, symObjAddr: 0x2F24, symBinAddr: 0x100004438, symSize: 0x44 }
  - { offsetInCU: 0xE493, offset: 0xE493, size: 0x8, addend: 0x0, symName: __ZNKSt3__114__split_bufferI20ECElevatorSimRequestRNS_9allocatorIS1_EEE9__end_capB8ne180100Ev, symObjAddr: 0x3070, symBinAddr: 0x100004584, symSize: 0x28 }
  - { offsetInCU: 0xE4B8, offset: 0xE4B8, size: 0x8, addend: 0x0, symName: __ZNKSt3__117__compressed_pairIP20ECElevatorSimRequestRNS_9allocatorIS1_EEE5firstB8ne180100Ev, symObjAddr: 0x3098, symBinAddr: 0x1000045AC, symSize: 0x24 }
  - { offsetInCU: 0xE4DD, offset: 0xE4DD, size: 0x8, addend: 0x0, symName: __ZNSt3__16vectorIiNS_9allocatorIiEEEC2B8ne180100Ev, symObjAddr: 0x30BC, symBinAddr: 0x1000045D0, symSize: 0x4C }
  - { offsetInCU: 0xE506, offset: 0xE506, size: 0x8, addend: 0x0, symName: __ZNSt3__117__compressed_pairIPiNS_9allocatorIiEEEC1B8ne180100IDnNS_18__default_init_tagEEEOT_OT0_, symObjAddr: 0x3108, symBinAddr: 0x10000461C, symSize: 0x3C }
  - { offsetInCU: 0xE55D, offset: 0xE55D, size: 0x8, addend: 0x0, symName: __ZNSt3__117__compressed_pairIPiNS_9allocatorIiEEEC2B8ne180100IDnNS_18__default_init_tagEEEOT_OT0_, symObjAddr: 0x3144, symBinAddr: 0x100004658, symSize: 0x40 }
  - { offsetInCU: 0xE5B4, offset: 0xE5B4, size: 0x8, addend: 0x0, symName: __ZNSt3__122__compressed_pair_elemIPiLi0ELb0EEC2B8ne180100IDnvEEOT_, symObjAddr: 0x3184, symBinAddr: 0x100004698, symSize: 0x1C }
  - { offsetInCU: 0xE5F5, offset: 0xE5F5, size: 0x8, addend: 0x0, symName: __ZNSt3__122__compressed_pair_elemINS_9allocatorIiEELi1ELb1EEC2B8ne180100ENS_18__default_init_tagE, symObjAddr: 0x31A0, symBinAddr: 0x1000046B4, symSize: 0x2C }
  - { offsetInCU: 0xE629, offset: 0xE629, size: 0x8, addend: 0x0, symName: __ZNSt3__19allocatorIiEC2B8ne180100Ev, symObjAddr: 0x31CC, symBinAddr: 0x1000046E0, symSize: 0x2C }
  - { offsetInCU: 0xE652, offset: 0xE652, size: 0x8, addend: 0x0, symName: __ZNSt3__116__non_trivial_ifILb1ENS_9allocatorIiEEEC2B8ne180100Ev, symObjAddr: 0x31F8, symBinAddr: 0x10000470C, symSize: 0x14 }
  - { offsetInCU: 0xE67B, offset: 0xE67B, size: 0x8, addend: 0x0, symName: __ZNSt3__16vectorIiNS_9allocatorIiEEE9__end_capB8ne180100Ev, symObjAddr: 0x320C, symBinAddr: 0x100004720, symSize: 0x28 }
  - { offsetInCU: 0xE6A5, offset: 0xE6A5, size: 0x8, addend: 0x0, symName: __ZNSt3__16vectorIiNS_9allocatorIiEEE22__construct_one_at_endB8ne180100IJiEEEvDpOT_, symObjAddr: 0x3234, symBinAddr: 0x100004748, symSize: 0x90 }
  - { offsetInCU: 0xE6F2, offset: 0xE6F2, size: 0x8, addend: 0x0, symName: __ZNSt3__16vectorIiNS_9allocatorIiEEE21__push_back_slow_pathIiEEPiOT_, symObjAddr: 0x32C4, symBinAddr: 0x1000047D8, symSize: 0xE8 }
  - { offsetInCU: 0xE74F, offset: 0xE74F, size: 0x8, addend: 0x0, symName: __ZNSt3__117__compressed_pairIPiNS_9allocatorIiEEE5firstB8ne180100Ev, symObjAddr: 0x33AC, symBinAddr: 0x1000048C0, symSize: 0x24 }
  - { offsetInCU: 0xE774, offset: 0xE774, size: 0x8, addend: 0x0, symName: __ZNSt3__122__compressed_pair_elemIPiLi0ELb0EE5__getB8ne180100Ev, symObjAddr: 0x33D0, symBinAddr: 0x1000048E4, symSize: 0x14 }
  - { offsetInCU: 0xE7B2, offset: 0xE7B2, size: 0x8, addend: 0x0, symName: __ZNSt3__16vectorIiNS_9allocatorIiEEE21_ConstructTransactionC1B8ne180100ERS3_m, symObjAddr: 0x33E4, symBinAddr: 0x1000048F8, symSize: 0x3C }
  - { offsetInCU: 0xE7F9, offset: 0xE7F9, size: 0x8, addend: 0x0, symName: __ZNSt3__116allocator_traitsINS_9allocatorIiEEE9constructB8ne180100IiJiEvEEvRS2_PT_DpOT0_, symObjAddr: 0x3420, symBinAddr: 0x100004934, symSize: 0x34 }
  - { offsetInCU: 0xE850, offset: 0xE850, size: 0x8, addend: 0x0, symName: __ZNSt3__16vectorIiNS_9allocatorIiEEE7__allocB8ne180100Ev, symObjAddr: 0x3454, symBinAddr: 0x100004968, symSize: 0x28 }
  - { offsetInCU: 0xE875, offset: 0xE875, size: 0x8, addend: 0x0, symName: __ZNSt3__16vectorIiNS_9allocatorIiEEE21_ConstructTransactionD1B8ne180100Ev, symObjAddr: 0x3490, symBinAddr: 0x1000049A4, symSize: 0x2C }
  - { offsetInCU: 0xE89E, offset: 0xE89E, size: 0x8, addend: 0x0, symName: __ZNSt3__16vectorIiNS_9allocatorIiEEE21_ConstructTransactionC2B8ne180100ERS3_m, symObjAddr: 0x34BC, symBinAddr: 0x1000049D0, symSize: 0x44 }
  - { offsetInCU: 0xE8E5, offset: 0xE8E5, size: 0x8, addend: 0x0, symName: __ZNSt3__19allocatorIiE9constructB8ne180100IiJiEEEvPT_DpOT0_, symObjAddr: 0x3500, symBinAddr: 0x100004A14, symSize: 0x28 }
  - { offsetInCU: 0xE93A, offset: 0xE93A, size: 0x8, addend: 0x0, symName: __ZNSt3__117__compressed_pairIPiNS_9allocatorIiEEE6secondB8ne180100Ev, symObjAddr: 0x3528, symBinAddr: 0x100004A3C, symSize: 0x24 }
  - { offsetInCU: 0xE95F, offset: 0xE95F, size: 0x8, addend: 0x0, symName: __ZNSt3__122__compressed_pair_elemINS_9allocatorIiEELi1ELb1EE5__getB8ne180100Ev, symObjAddr: 0x354C, symBinAddr: 0x100004A60, symSize: 0x14 }
  - { offsetInCU: 0xE984, offset: 0xE984, size: 0x8, addend: 0x0, symName: __ZNSt3__16vectorIiNS_9allocatorIiEEE21_ConstructTransactionD2B8ne180100Ev, symObjAddr: 0x3560, symBinAddr: 0x100004A74, symSize: 0x20 }
  - { offsetInCU: 0xE9AC, offset: 0xE9AC, size: 0x8, addend: 0x0, symName: __ZNKSt3__16vectorIiNS_9allocatorIiEEE11__recommendB8ne180100Em, symObjAddr: 0x3580, symBinAddr: 0x100004A94, symSize: 0xB4 }
  - { offsetInCU: 0xEA00, offset: 0xEA00, size: 0x8, addend: 0x0, symName: __ZNKSt3__16vectorIiNS_9allocatorIiEEE4sizeB8ne180100Ev, symObjAddr: 0x3634, symBinAddr: 0x100004B48, symSize: 0x28 }
  - { offsetInCU: 0xEA25, offset: 0xEA25, size: 0x8, addend: 0x0, symName: __ZNSt3__114__split_bufferIiRNS_9allocatorIiEEEC1EmmS3_, symObjAddr: 0x365C, symBinAddr: 0x100004B70, symSize: 0x44 }
  - { offsetInCU: 0xEA7A, offset: 0xEA7A, size: 0x8, addend: 0x0, symName: __ZNSt3__114__split_bufferIiRNS_9allocatorIiEEED1Ev, symObjAddr: 0x37B0, symBinAddr: 0x100004CC4, symSize: 0x2C }
  - { offsetInCU: 0xEAA4, offset: 0xEAA4, size: 0x8, addend: 0x0, symName: __ZNKSt3__16vectorIiNS_9allocatorIiEEE8max_sizeEv, symObjAddr: 0x37DC, symBinAddr: 0x100004CF0, symSize: 0x60 }
  - { offsetInCU: 0xEACB, offset: 0xEACB, size: 0x8, addend: 0x0, symName: __ZNKSt3__16vectorIiNS_9allocatorIiEEE20__throw_length_errorB8ne180100Ev, symObjAddr: 0x383C, symBinAddr: 0x100004D50, symSize: 0x1C }
  - { offsetInCU: 0xEAF0, offset: 0xEAF0, size: 0x8, addend: 0x0, symName: __ZNKSt3__16vectorIiNS_9allocatorIiEEE8capacityB8ne180100Ev, symObjAddr: 0x3858, symBinAddr: 0x100004D6C, symSize: 0x40 }
  - { offsetInCU: 0xEB1F, offset: 0xEB1F, size: 0x8, addend: 0x0, symName: __ZNSt3__116allocator_traitsINS_9allocatorIiEEE8max_sizeB8ne180100IS2_vEEmRKS2_, symObjAddr: 0x3898, symBinAddr: 0x100004DAC, symSize: 0x24 }
  - { offsetInCU: 0xEB4D, offset: 0xEB4D, size: 0x8, addend: 0x0, symName: __ZNKSt3__16vectorIiNS_9allocatorIiEEE7__allocB8ne180100Ev, symObjAddr: 0x38BC, symBinAddr: 0x100004DD0, symSize: 0x28 }
  - { offsetInCU: 0xEB72, offset: 0xEB72, size: 0x8, addend: 0x0, symName: __ZNKSt3__19allocatorIiE8max_sizeB8ne180100Ev, symObjAddr: 0x38E4, symBinAddr: 0x100004DF8, symSize: 0x14 }
  - { offsetInCU: 0xEB97, offset: 0xEB97, size: 0x8, addend: 0x0, symName: __ZNKSt3__117__compressed_pairIPiNS_9allocatorIiEEE6secondB8ne180100Ev, symObjAddr: 0x38F8, symBinAddr: 0x100004E0C, symSize: 0x24 }
  - { offsetInCU: 0xEBBC, offset: 0xEBBC, size: 0x8, addend: 0x0, symName: __ZNKSt3__122__compressed_pair_elemINS_9allocatorIiEELi1ELb1EE5__getB8ne180100Ev, symObjAddr: 0x391C, symBinAddr: 0x100004E30, symSize: 0x14 }
  - { offsetInCU: 0xEBE1, offset: 0xEBE1, size: 0x8, addend: 0x0, symName: __ZNKSt3__16vectorIiNS_9allocatorIiEEE9__end_capB8ne180100Ev, symObjAddr: 0x3930, symBinAddr: 0x100004E44, symSize: 0x28 }
  - { offsetInCU: 0xEC06, offset: 0xEC06, size: 0x8, addend: 0x0, symName: __ZNKSt3__117__compressed_pairIPiNS_9allocatorIiEEE5firstB8ne180100Ev, symObjAddr: 0x3958, symBinAddr: 0x100004E6C, symSize: 0x24 }
  - { offsetInCU: 0xEC2B, offset: 0xEC2B, size: 0x8, addend: 0x0, symName: __ZNKSt3__122__compressed_pair_elemIPiLi0ELb0EE5__getB8ne180100Ev, symObjAddr: 0x397C, symBinAddr: 0x100004E90, symSize: 0x14 }
  - { offsetInCU: 0xEC50, offset: 0xEC50, size: 0x8, addend: 0x0, symName: __ZNSt3__114__split_bufferIiRNS_9allocatorIiEEEC2EmmS3_, symObjAddr: 0x3990, symBinAddr: 0x100004EA4, symSize: 0xD4 }
  - { offsetInCU: 0xECC2, offset: 0xECC2, size: 0x8, addend: 0x0, symName: __ZNSt3__117__compressed_pairIPiRNS_9allocatorIiEEEC1B8ne180100IDnS4_EEOT_OT0_, symObjAddr: 0x3A64, symBinAddr: 0x100004F78, symSize: 0x3C }
  - { offsetInCU: 0xED19, offset: 0xED19, size: 0x8, addend: 0x0, symName: __ZNSt3__114__split_bufferIiRNS_9allocatorIiEEE7__allocB8ne180100Ev, symObjAddr: 0x3AE0, symBinAddr: 0x100004FF4, symSize: 0x28 }
  - { offsetInCU: 0xED3E, offset: 0xED3E, size: 0x8, addend: 0x0, symName: __ZNSt3__114__split_bufferIiRNS_9allocatorIiEEE9__end_capB8ne180100Ev, symObjAddr: 0x3B08, symBinAddr: 0x10000501C, symSize: 0x28 }
  - { offsetInCU: 0xED63, offset: 0xED63, size: 0x8, addend: 0x0, symName: __ZNSt3__117__compressed_pairIPiRNS_9allocatorIiEEEC2B8ne180100IDnS4_EEOT_OT0_, symObjAddr: 0x3B30, symBinAddr: 0x100005044, symSize: 0x48 }
  - { offsetInCU: 0xEDBA, offset: 0xEDBA, size: 0x8, addend: 0x0, symName: __ZNSt3__122__compressed_pair_elemIRNS_9allocatorIiEELi1ELb0EEC2B8ne180100IS3_vEEOT_, symObjAddr: 0x3B78, symBinAddr: 0x10000508C, symSize: 0x20 }
  - { offsetInCU: 0xEDFB, offset: 0xEDFB, size: 0x8, addend: 0x0, symName: __ZNSt3__19allocatorIiE8allocateB8ne180100Em, symObjAddr: 0x3B98, symBinAddr: 0x1000050AC, symSize: 0x58 }
  - { offsetInCU: 0xEE2E, offset: 0xEE2E, size: 0x8, addend: 0x0, symName: __ZNSt3__117__compressed_pairIPiRNS_9allocatorIiEEE6secondB8ne180100Ev, symObjAddr: 0x3BF0, symBinAddr: 0x100005104, symSize: 0x28 }
  - { offsetInCU: 0xEE53, offset: 0xEE53, size: 0x8, addend: 0x0, symName: __ZNSt3__122__compressed_pair_elemIRNS_9allocatorIiEELi1ELb0EE5__getB8ne180100Ev, symObjAddr: 0x3C18, symBinAddr: 0x10000512C, symSize: 0x18 }
  - { offsetInCU: 0xEE78, offset: 0xEE78, size: 0x8, addend: 0x0, symName: __ZNSt3__117__compressed_pairIPiRNS_9allocatorIiEEE5firstB8ne180100Ev, symObjAddr: 0x3C30, symBinAddr: 0x100005144, symSize: 0x24 }
  - { offsetInCU: 0xEE9D, offset: 0xEE9D, size: 0x8, addend: 0x0, symName: __ZNKSt3__16vectorIiNS_9allocatorIiEEE17__annotate_deleteB8ne180100Ev, symObjAddr: 0x3C54, symBinAddr: 0x100005168, symSize: 0x10 }
  - { offsetInCU: 0xEEC2, offset: 0xEEC2, size: 0x8, addend: 0x0, symName: __ZNSt3__116reverse_iteratorIPiEC1B8ne180100ES1_, symObjAddr: 0x3CDC, symBinAddr: 0x1000051F0, symSize: 0x34 }
  - { offsetInCU: 0xEEF9, offset: 0xEEF9, size: 0x8, addend: 0x0, symName: __ZNKSt3__116reverse_iteratorIPiE4baseB8ne180100Ev, symObjAddr: 0x3D10, symBinAddr: 0x100005224, symSize: 0x18 }
  - { offsetInCU: 0xEF1E, offset: 0xEF1E, size: 0x8, addend: 0x0, symName: __ZNKSt3__16vectorIiNS_9allocatorIiEEE14__annotate_newB8ne180100Em, symObjAddr: 0x3D64, symBinAddr: 0x100005278, symSize: 0x14 }
  - { offsetInCU: 0xEF75, offset: 0xEF75, size: 0x8, addend: 0x0, symName: __ZNKSt3__111__move_loopINS_17_ClassicAlgPolicyEEclB8ne180100INS_16reverse_iteratorIPiEES6_S6_EENS_4pairIT_T1_EES8_T0_S9_, symObjAddr: 0x4068, symBinAddr: 0x10000557C, symSize: 0xA0 }
  - { offsetInCU: 0xEFE4, offset: 0xEFE4, size: 0x8, addend: 0x0, symName: __ZNSt3__18_IterOpsINS_17_ClassicAlgPolicyEE11__iter_moveB8ne180100IRNS_16reverse_iteratorIPiEELi0EEEDTclsr3stdE4movedeclsr3stdE7declvalIRT_EEEEOS8_, symObjAddr: 0x429C, symBinAddr: 0x1000057B0, symSize: 0x28 }
  - { offsetInCU: 0xF016, offset: 0xF016, size: 0x8, addend: 0x0, symName: __ZNKSt3__116reverse_iteratorIPiEdeB8ne180100Ev, symObjAddr: 0x42C4, symBinAddr: 0x1000057D8, symSize: 0x28 }
  - { offsetInCU: 0xF049, offset: 0xF049, size: 0x8, addend: 0x0, symName: __ZNSt3__116reverse_iteratorIPiEppB8ne180100Ev, symObjAddr: 0x42EC, symBinAddr: 0x100005800, symSize: 0x20 }
  - { offsetInCU: 0xF06E, offset: 0xF06E, size: 0x8, addend: 0x0, symName: __ZNSt3__18_IterOpsINS_17_ClassicAlgPolicyEE25__validate_iter_referenceB8ne180100IRNS_16reverse_iteratorIPiEEEEvv, symObjAddr: 0x430C, symBinAddr: 0x100005820, symSize: 0x4 }
  - { offsetInCU: 0xF08C, offset: 0xF08C, size: 0x8, addend: 0x0, symName: __ZNSt3__118__unwrap_iter_implINS_16reverse_iteratorIPiEELb0EE8__unwrapB8ne180100ES3_, symObjAddr: 0x4310, symBinAddr: 0x100005824, symSize: 0x24 }
  - { offsetInCU: 0xF0B4, offset: 0xF0B4, size: 0x8, addend: 0x0, symName: __ZNSt3__14pairINS_16reverse_iteratorIPiEES3_EC1B8ne180100IS3_S3_Li0EEEOT_OT0_, symObjAddr: 0x4334, symBinAddr: 0x100005848, symSize: 0x3C }
  - { offsetInCU: 0xF111, offset: 0xF111, size: 0x8, addend: 0x0, symName: __ZNSt3__14pairINS_16reverse_iteratorIPiEES3_EC2B8ne180100IS3_S3_Li0EEEOT_OT0_, symObjAddr: 0x4370, symBinAddr: 0x100005884, symSize: 0x34 }
  - { offsetInCU: 0xF16E, offset: 0xF16E, size: 0x8, addend: 0x0, symName: __ZNSt3__118__unwrap_iter_implINS_16reverse_iteratorIPiEELb0EE8__rewrapB8ne180100ES3_S3_, symObjAddr: 0x43A4, symBinAddr: 0x1000058B8, symSize: 0x2C }
  - { offsetInCU: 0xF19C, offset: 0xF19C, size: 0x8, addend: 0x0, symName: __ZNSt3__116reverse_iteratorIPiEC2B8ne180100ES1_, symObjAddr: 0x43D0, symBinAddr: 0x1000058E4, symSize: 0x28 }
  - { offsetInCU: 0xF1D3, offset: 0xF1D3, size: 0x8, addend: 0x0, symName: __ZNSt3__114__split_bufferIiRNS_9allocatorIiEEED2Ev, symObjAddr: 0x43F8, symBinAddr: 0x10000590C, symSize: 0x8C }
  - { offsetInCU: 0xF1FE, offset: 0xF1FE, size: 0x8, addend: 0x0, symName: __ZNSt3__114__split_bufferIiRNS_9allocatorIiEEE5clearB8ne180100Ev, symObjAddr: 0x4484, symBinAddr: 0x100005998, symSize: 0x28 }
  - { offsetInCU: 0xF223, offset: 0xF223, size: 0x8, addend: 0x0, symName: __ZNSt3__116allocator_traitsINS_9allocatorIiEEE10deallocateB8ne180100ERS2_Pim, symObjAddr: 0x44AC, symBinAddr: 0x1000059C0, symSize: 0x34 }
  - { offsetInCU: 0xF265, offset: 0xF265, size: 0x8, addend: 0x0, symName: __ZNKSt3__114__split_bufferIiRNS_9allocatorIiEEE8capacityB8ne180100Ev, symObjAddr: 0x44E0, symBinAddr: 0x1000059F4, symSize: 0x40 }
  - { offsetInCU: 0xF28A, offset: 0xF28A, size: 0x8, addend: 0x0, symName: __ZNSt3__114__split_bufferIiRNS_9allocatorIiEEE17__destruct_at_endB8ne180100EPi, symObjAddr: 0x4520, symBinAddr: 0x100005A34, symSize: 0x2C }
  - { offsetInCU: 0xF2BC, offset: 0xF2BC, size: 0x8, addend: 0x0, symName: __ZNSt3__114__split_bufferIiRNS_9allocatorIiEEE17__destruct_at_endB8ne180100EPiNS_17integral_constantIbLb0EEE, symObjAddr: 0x454C, symBinAddr: 0x100005A60, symSize: 0x80 }
  - { offsetInCU: 0xF2FC, offset: 0xF2FC, size: 0x8, addend: 0x0, symName: __ZNSt3__116allocator_traitsINS_9allocatorIiEEE7destroyB8ne180100IivEEvRS2_PT_, symObjAddr: 0x45CC, symBinAddr: 0x100005AE0, symSize: 0x2C }
  - { offsetInCU: 0xF339, offset: 0xF339, size: 0x8, addend: 0x0, symName: __ZNSt3__19allocatorIiE7destroyB8ne180100EPi, symObjAddr: 0x45F8, symBinAddr: 0x100005B0C, symSize: 0x14 }
  - { offsetInCU: 0xF36C, offset: 0xF36C, size: 0x8, addend: 0x0, symName: __ZNSt3__19allocatorIiE10deallocateB8ne180100EPim, symObjAddr: 0x460C, symBinAddr: 0x100005B20, symSize: 0x40 }
  - { offsetInCU: 0xF3AD, offset: 0xF3AD, size: 0x8, addend: 0x0, symName: __ZNKSt3__114__split_bufferIiRNS_9allocatorIiEEE9__end_capB8ne180100Ev, symObjAddr: 0x464C, symBinAddr: 0x100005B60, symSize: 0x28 }
  - { offsetInCU: 0xF3D2, offset: 0xF3D2, size: 0x8, addend: 0x0, symName: __ZNKSt3__117__compressed_pairIPiRNS_9allocatorIiEEE5firstB8ne180100Ev, symObjAddr: 0x4674, symBinAddr: 0x100005B88, symSize: 0x24 }
  - { offsetInCU: 0xF3F7, offset: 0xF3F7, size: 0x8, addend: 0x0, symName: __ZNSt3__16vectorI20ECElevatorSimRequestNS_9allocatorIS1_EEEixB8ne180100Em, symObjAddr: 0x4698, symBinAddr: 0x100005BAC, symSize: 0x2C }
  - { offsetInCU: 0xF42D, offset: 0xF42D, size: 0x8, addend: 0x0, symName: __ZNK20ECElevatorSimRequest13GetArriveTimeEv, symObjAddr: 0x46C4, symBinAddr: 0x100005BD8, symSize: 0x18 }
  - { offsetInCU: 0xF452, offset: 0xF452, size: 0x8, addend: 0x0, symName: __Z9ASSERT_EQIiEvT_S0_, symObjAddr: 0x46DC, symBinAddr: 0x100005BF0, symSize: 0xB8 }
  - { offsetInCU: 0xF492, offset: 0xF492, size: 0x8, addend: 0x0, symName: __ZNSt3__16vectorIiNS_9allocatorIiEEEixB8ne180100Em, symObjAddr: 0x4794, symBinAddr: 0x100005CA8, symSize: 0x24 }
  - { offsetInCU: 0xF4C8, offset: 0xF4C8, size: 0x8, addend: 0x0, symName: __ZNSt3__113basic_ostreamIcNS_11char_traitsIcEEElsB8ne180100EPFRS3_S4_E, symObjAddr: 0x47B8, symBinAddr: 0x100005CCC, symSize: 0x2C }
  - { offsetInCU: 0xF4FB, offset: 0xF4FB, size: 0x8, addend: 0x0, symName: __ZNSt3__16vectorIiNS_9allocatorIiEEED2B8ne180100Ev, symObjAddr: 0x483C, symBinAddr: 0x100005D50, symSize: 0x44 }
  - { offsetInCU: 0xF524, offset: 0xF524, size: 0x8, addend: 0x0, symName: __ZNSt3__16vectorIiNS_9allocatorIiEEE16__destroy_vectorC1B8ne180100ERS3_, symObjAddr: 0x4880, symBinAddr: 0x100005D94, symSize: 0x34 }
  - { offsetInCU: 0xF55C, offset: 0xF55C, size: 0x8, addend: 0x0, symName: __ZNSt3__16vectorIiNS_9allocatorIiEEE16__destroy_vectorclB8ne180100Ev, symObjAddr: 0x48B4, symBinAddr: 0x100005DC8, symSize: 0x90 }
  - { offsetInCU: 0xF581, offset: 0xF581, size: 0x8, addend: 0x0, symName: __ZNSt3__16vectorIiNS_9allocatorIiEEE16__destroy_vectorC2B8ne180100ERS3_, symObjAddr: 0x4944, symBinAddr: 0x100005E58, symSize: 0x20 }
  - { offsetInCU: 0xF5B9, offset: 0xF5B9, size: 0x8, addend: 0x0, symName: __ZNSt3__16vectorIiNS_9allocatorIiEEE7__clearB8ne180100Ev, symObjAddr: 0x4964, symBinAddr: 0x100005E78, symSize: 0x28 }
  - { offsetInCU: 0xF5DE, offset: 0xF5DE, size: 0x8, addend: 0x0, symName: __ZNSt3__16vectorIiNS_9allocatorIiEEE22__base_destruct_at_endB8ne180100EPi, symObjAddr: 0x498C, symBinAddr: 0x100005EA0, symSize: 0x8C }
  - { offsetInCU: 0xF621, offset: 0xF621, size: 0x8, addend: 0x0, symName: __ZNSt3__16vectorI20ECElevatorSimRequestNS_9allocatorIS1_EEED2B8ne180100Ev, symObjAddr: 0x4A18, symBinAddr: 0x100005F2C, symSize: 0x44 }
  - { offsetInCU: 0xF64A, offset: 0xF64A, size: 0x8, addend: 0x0, symName: __ZNSt3__16vectorI20ECElevatorSimRequestNS_9allocatorIS1_EEE16__destroy_vectorC1B8ne180100ERS4_, symObjAddr: 0x4A5C, symBinAddr: 0x100005F70, symSize: 0x34 }
  - { offsetInCU: 0xF682, offset: 0xF682, size: 0x8, addend: 0x0, symName: __ZNSt3__16vectorI20ECElevatorSimRequestNS_9allocatorIS1_EEE16__destroy_vectorclB8ne180100Ev, symObjAddr: 0x4A90, symBinAddr: 0x100005FA4, symSize: 0x90 }
  - { offsetInCU: 0xF6A7, offset: 0xF6A7, size: 0x8, addend: 0x0, symName: __ZNSt3__16vectorI20ECElevatorSimRequestNS_9allocatorIS1_EEE16__destroy_vectorC2B8ne180100ERS4_, symObjAddr: 0x4B20, symBinAddr: 0x100006034, symSize: 0x20 }
  - { offsetInCU: 0xF6DF, offset: 0xF6DF, size: 0x8, addend: 0x0, symName: __ZNSt3__16vectorI20ECElevatorSimRequestNS_9allocatorIS1_EEE7__clearB8ne180100Ev, symObjAddr: 0x4B40, symBinAddr: 0x100006054, symSize: 0x28 }
  - { offsetInCU: 0xF704, offset: 0xF704, size: 0x8, addend: 0x0, symName: __ZNSt3__16vectorI20ECElevatorSimRequestNS_9allocatorIS1_EEE22__base_destruct_at_endB8ne180100EPS1_, symObjAddr: 0x4B68, symBinAddr: 0x10000607C, symSize: 0x8C }
  - { offsetInCU: 0x1A0D, offset: 0x114A5, size: 0x8, addend: 0x0, symName: __ZNSt3__1neB8ne180100IP20ECElevatorSimRequestEEbRKNS_11__wrap_iterIT_EES7_, symObjAddr: 0x6BC, symBinAddr: 0x1000066CC, symSize: 0x34 }
  - { offsetInCU: 0x1A50, offset: 0x114E8, size: 0x8, addend: 0x0, symName: __ZNSt3__1eqB8ne180100IP20ECElevatorSimRequestEEbRKNS_11__wrap_iterIT_EES7_, symObjAddr: 0x118C, symBinAddr: 0x100006F84, symSize: 0x48 }
  - { offsetInCU: 0x3CBA, offset: 0x13752, size: 0x8, addend: 0x0, symName: __ZN13ECElevatorSimC2EiRNSt3__16vectorI20ECElevatorSimRequestNS0_9allocatorIS2_EEEE, symObjAddr: 0x0, symBinAddr: 0x100006108, symSize: 0xC8 }
  - { offsetInCU: 0x3D01, offset: 0x13799, size: 0x8, addend: 0x0, symName: __ZNSt3__16vectorI20ECElevatorSimRequestNS_9allocatorIS1_EEEC1B8ne180100EOS4_, symObjAddr: 0xC8, symBinAddr: 0x1000061D0, symSize: 0x34 }
  - { offsetInCU: 0x3D98, offset: 0x13830, size: 0x8, addend: 0x0, symName: __ZN7StoppedC1ER13ECElevatorSim, symObjAddr: 0xFC, symBinAddr: 0x100006204, symSize: 0x34 }
  - { offsetInCU: 0x3DCF, offset: 0x13867, size: 0x8, addend: 0x0, symName: __ZN13ECElevatorSimC1EiRNSt3__16vectorI20ECElevatorSimRequestNS0_9allocatorIS2_EEEE, symObjAddr: 0x15C, symBinAddr: 0x100006238, symSize: 0x3C }
  - { offsetInCU: 0x3E16, offset: 0x138AE, size: 0x8, addend: 0x0, symName: __ZN13ECElevatorSimD2Ev, symObjAddr: 0x198, symBinAddr: 0x100006274, symSize: 0x68 }
  - { offsetInCU: 0x3E41, offset: 0x138D9, size: 0x8, addend: 0x0, symName: __ZN13ECElevatorSimD1Ev, symObjAddr: 0x200, symBinAddr: 0x1000062DC, symSize: 0x2C }
  - { offsetInCU: 0x3E6C, offset: 0x13904, size: 0x8, addend: 0x0, symName: __ZNK13ECElevatorSim12GetCurrFloorEv, symObjAddr: 0x22C, symBinAddr: 0x100006308, symSize: 0x78 }
  - { offsetInCU: 0x3E93, offset: 0x1392B, size: 0x8, addend: 0x0, symName: __ZN13ECElevatorSim10SetCurrDirE15EC_ELEVATOR_DIR, symObjAddr: 0x370, symBinAddr: 0x100006380, symSize: 0x20 }
  - { offsetInCU: 0x3EC8, offset: 0x13960, size: 0x8, addend: 0x0, symName: __ZN13ECElevatorSim12SetCurrFloorEi, symObjAddr: 0x390, symBinAddr: 0x1000063A0, symSize: 0x20 }
  - { offsetInCU: 0x3EFD, offset: 0x13995, size: 0x8, addend: 0x0, symName: __ZNK13ECElevatorSim10GetCurrDirEv, symObjAddr: 0x3B0, symBinAddr: 0x1000063C0, symSize: 0x18 }
  - { offsetInCU: 0x3F24, offset: 0x139BC, size: 0x8, addend: 0x0, symName: __ZN13ECElevatorSim11GetCurrTimeEv, symObjAddr: 0x3C8, symBinAddr: 0x1000063D8, symSize: 0x18 }
  - { offsetInCU: 0x3F4B, offset: 0x139E3, size: 0x8, addend: 0x0, symName: __ZN7Stopped10onTimeTickEv, symObjAddr: 0x3E0, symBinAddr: 0x1000063F0, symSize: 0x188 }
  - { offsetInCU: 0x4017, offset: 0x13AAF, size: 0x8, addend: 0x0, symName: __ZN13ElevatorState17getActiveRequestsEv, symObjAddr: 0x568, symBinAddr: 0x100006578, symSize: 0xCC }
  - { offsetInCU: 0x408F, offset: 0x13B27, size: 0x8, addend: 0x0, symName: __ZNKSt3__16vectorI20ECElevatorSimRequestNS_9allocatorIS1_EEE5emptyB8ne180100Ev, symObjAddr: 0x634, symBinAddr: 0x100006644, symSize: 0x28 }
  - { offsetInCU: 0x40B3, offset: 0x13B4B, size: 0x8, addend: 0x0, symName: __ZNSt3__16vectorI20ECElevatorSimRequestNS_9allocatorIS1_EEE5beginB8ne180100Ev, symObjAddr: 0x65C, symBinAddr: 0x10000666C, symSize: 0x30 }
  - { offsetInCU: 0x40D9, offset: 0x13B71, size: 0x8, addend: 0x0, symName: __ZNSt3__16vectorI20ECElevatorSimRequestNS_9allocatorIS1_EEE3endB8ne180100Ev, symObjAddr: 0x68C, symBinAddr: 0x10000669C, symSize: 0x30 }
  - { offsetInCU: 0x4100, offset: 0x13B98, size: 0x8, addend: 0x0, symName: __ZNKSt3__111__wrap_iterIP20ECElevatorSimRequestEdeB8ne180100Ev, symObjAddr: 0x6F0, symBinAddr: 0x100006700, symSize: 0x18 }
  - { offsetInCU: 0x4125, offset: 0x13BBD, size: 0x8, addend: 0x0, symName: __ZNK20ECElevatorSimRequest17GetRequestedFloorEv, symObjAddr: 0x708, symBinAddr: 0x100006718, symSize: 0x70 }
  - { offsetInCU: 0x414A, offset: 0x13BE2, size: 0x8, addend: 0x0, symName: __ZN13ECElevatorSim17transitionToStateE20EC_ELEVATOR_MOVEMENT, symObjAddr: 0x778, symBinAddr: 0x100006788, symSize: 0x1B8 }
  - { offsetInCU: 0x417F, offset: 0x13C17, size: 0x8, addend: 0x0, symName: __ZNSt3__111__wrap_iterIP20ECElevatorSimRequestEppB8ne180100Ev, symObjAddr: 0x930, symBinAddr: 0x100006940, symSize: 0x20 }
  - { offsetInCU: 0x4201, offset: 0x13C99, size: 0x8, addend: 0x0, symName: __ZN7Loading10onTimeTickEv, symObjAddr: 0x950, symBinAddr: 0x100006960, symSize: 0x13C }
  - { offsetInCU: 0x4279, offset: 0x13D11, size: 0x8, addend: 0x0, symName: __ZNK20ECElevatorSimRequest11GetFloorSrcEv, symObjAddr: 0xA8C, symBinAddr: 0x100006A9C, symSize: 0x18 }
  - { offsetInCU: 0x429E, offset: 0x13D36, size: 0x8, addend: 0x0, symName: __ZN20ECElevatorSimRequest13SetArriveTimeEi, symObjAddr: 0xAA4, symBinAddr: 0x100006AB4, symSize: 0x20 }
  - { offsetInCU: 0x42D1, offset: 0x13D69, size: 0x8, addend: 0x0, symName: __ZNK20ECElevatorSimRequest12GetFloorDestEv, symObjAddr: 0xAC4, symBinAddr: 0x100006AD4, symSize: 0x18 }
  - { offsetInCU: 0x42F6, offset: 0x13D8E, size: 0x8, addend: 0x0, symName: __ZN20ECElevatorSimRequest11SetServicedEb, symObjAddr: 0xADC, symBinAddr: 0x100006AEC, symSize: 0x2C }
  - { offsetInCU: 0x4386, offset: 0x13E1E, size: 0x8, addend: 0x0, symName: __ZN6Moving10onTimeTickEv, symObjAddr: 0xB08, symBinAddr: 0x100006B18, symSize: 0x154 }
  - { offsetInCU: 0x4444, offset: 0x13EDC, size: 0x8, addend: 0x0, symName: __ZNSt3__16vectorI20ECElevatorSimRequestNS_9allocatorIS1_EEE5clearB8ne180100Ev, symObjAddr: 0xC5C, symBinAddr: 0x100006C6C, symSize: 0x44 }
  - { offsetInCU: 0x4478, offset: 0x13F10, size: 0x8, addend: 0x0, symName: __ZNK20ECElevatorSimRequest7GetTimeEv, symObjAddr: 0xCA0, symBinAddr: 0x100006CB0, symSize: 0x18 }
  - { offsetInCU: 0x449D, offset: 0x13F35, size: 0x8, addend: 0x0, symName: __ZN6MovingC1ER13ECElevatorSim, symObjAddr: 0xD48, symBinAddr: 0x100006CC8, symSize: 0x34 }
  - { offsetInCU: 0x44D4, offset: 0x13F6C, size: 0x8, addend: 0x0, symName: __ZN7LoadingC1ER13ECElevatorSim, symObjAddr: 0xD7C, symBinAddr: 0x100006CFC, symSize: 0x34 }
  - { offsetInCU: 0x450B, offset: 0x13FA3, size: 0x8, addend: 0x0, symName: __ZN13ECElevatorSim8SimulateEi, symObjAddr: 0xDB0, symBinAddr: 0x100006D30, symSize: 0x7C }
  - { offsetInCU: 0x455C, offset: 0x13FF4, size: 0x8, addend: 0x0, symName: __ZN7StoppedD1Ev, symObjAddr: 0xE2C, symBinAddr: 0x100006DAC, symSize: 0x2C }
  - { offsetInCU: 0x4587, offset: 0x1401F, size: 0x8, addend: 0x0, symName: __ZN7StoppedD0Ev, symObjAddr: 0xE58, symBinAddr: 0x100006DD8, symSize: 0x30 }
  - { offsetInCU: 0x45B2, offset: 0x1404A, size: 0x8, addend: 0x0, symName: __ZN6MovingD1Ev, symObjAddr: 0xE88, symBinAddr: 0x100006E08, symSize: 0x2C }
  - { offsetInCU: 0x45DD, offset: 0x14075, size: 0x8, addend: 0x0, symName: __ZN6MovingD0Ev, symObjAddr: 0xEB4, symBinAddr: 0x100006E34, symSize: 0x30 }
  - { offsetInCU: 0x4608, offset: 0x140A0, size: 0x8, addend: 0x0, symName: __ZN7LoadingD1Ev, symObjAddr: 0xEE4, symBinAddr: 0x100006E64, symSize: 0x2C }
  - { offsetInCU: 0x4633, offset: 0x140CB, size: 0x8, addend: 0x0, symName: __ZN7LoadingD0Ev, symObjAddr: 0xF10, symBinAddr: 0x100006E90, symSize: 0x30 }
  - { offsetInCU: 0x465E, offset: 0x140F6, size: 0x8, addend: 0x0, symName: __ZN7StoppedC2ER13ECElevatorSim, symObjAddr: 0xF40, symBinAddr: 0x100006EC0, symSize: 0x4C }
  - { offsetInCU: 0x4695, offset: 0x1412D, size: 0x8, addend: 0x0, symName: __ZN13ElevatorStateC2ER13ECElevatorSim, symObjAddr: 0xF8C, symBinAddr: 0x100006F0C, symSize: 0x58 }
  - { offsetInCU: 0x46CC, offset: 0x14164, size: 0x8, addend: 0x0, symName: __ZN13ElevatorStateD1Ev, symObjAddr: 0x1010, symBinAddr: 0x100006F64, symSize: 0x14 }
  - { offsetInCU: 0x46F5, offset: 0x1418D, size: 0x8, addend: 0x0, symName: __ZN13ElevatorStateD0Ev, symObjAddr: 0x1024, symBinAddr: 0x100006F78, symSize: 0xC }
  - { offsetInCU: 0x4728, offset: 0x141C0, size: 0x8, addend: 0x0, symName: __ZNKSt3__111__wrap_iterIP20ECElevatorSimRequestE4baseB8ne180100Ev, symObjAddr: 0x11D4, symBinAddr: 0x100006FCC, symSize: 0x18 }
  - { offsetInCU: 0x474D, offset: 0x141E5, size: 0x8, addend: 0x0, symName: __ZNK20ECElevatorSimRequest10IsServicedEv, symObjAddr: 0x11EC, symBinAddr: 0x100006FE4, symSize: 0x1C }
  - { offsetInCU: 0x4772, offset: 0x1420A, size: 0x8, addend: 0x0, symName: __ZNK20ECElevatorSimRequest18IsFloorRequestDoneEv, symObjAddr: 0x1208, symBinAddr: 0x100007000, symSize: 0x1C }
  - { offsetInCU: 0x4797, offset: 0x1422F, size: 0x8, addend: 0x0, symName: __ZN6MovingC2ER13ECElevatorSim, symObjAddr: 0x1224, symBinAddr: 0x10000701C, symSize: 0x4C }
  - { offsetInCU: 0x47CE, offset: 0x14266, size: 0x8, addend: 0x0, symName: __ZN7LoadingC2ER13ECElevatorSim, symObjAddr: 0x1270, symBinAddr: 0x100007068, symSize: 0x4C }
  - { offsetInCU: 0x4805, offset: 0x1429D, size: 0x8, addend: 0x0, symName: __ZN7StoppedD2Ev, symObjAddr: 0x12BC, symBinAddr: 0x1000070B4, symSize: 0x2C }
  - { offsetInCU: 0x4830, offset: 0x142C8, size: 0x8, addend: 0x0, symName: __ZN13ElevatorStateD2Ev, symObjAddr: 0x12E8, symBinAddr: 0x1000070E0, symSize: 0x4C }
  - { offsetInCU: 0x4859, offset: 0x142F1, size: 0x8, addend: 0x0, symName: __ZN6MovingD2Ev, symObjAddr: 0x1334, symBinAddr: 0x10000712C, symSize: 0x2C }
  - { offsetInCU: 0x4884, offset: 0x1431C, size: 0x8, addend: 0x0, symName: __ZN7LoadingD2Ev, symObjAddr: 0x1360, symBinAddr: 0x100007158, symSize: 0x2C }
  - { offsetInCU: 0x48AF, offset: 0x14347, size: 0x8, addend: 0x0, symName: __ZNSt3__16vectorI20ECElevatorSimRequestNS_9allocatorIS1_EEEC2B8ne180100EOS4_, symObjAddr: 0x186C, symBinAddr: 0x100007184, symSize: 0xC4 }
  - { offsetInCU: 0x48EE, offset: 0x14386, size: 0x8, addend: 0x0, symName: __ZNSt3__117__compressed_pairIP20ECElevatorSimRequestNS_9allocatorIS1_EEEC1B8ne180100IDnS4_EEOT_OT0_, symObjAddr: 0x1930, symBinAddr: 0x100007248, symSize: 0x3C }
  - { offsetInCU: 0x4945, offset: 0x143DD, size: 0x8, addend: 0x0, symName: __ZNSt3__117__compressed_pairIP20ECElevatorSimRequestNS_9allocatorIS1_EEEC2B8ne180100IDnS4_EEOT_OT0_, symObjAddr: 0x1994, symBinAddr: 0x100007284, symSize: 0x44 }
  - { offsetInCU: 0x499C, offset: 0x14434, size: 0x8, addend: 0x0, symName: __ZNSt3__122__compressed_pair_elemINS_9allocatorI20ECElevatorSimRequestEELi1ELb1EEC2B8ne180100IS3_vEEOT_, symObjAddr: 0x19D8, symBinAddr: 0x1000072C8, symSize: 0x18 }
  - { offsetInCU: 0x49DD, offset: 0x14475, size: 0x8, addend: 0x0, symName: __ZNSt3__16vectorI20ECElevatorSimRequestNS_9allocatorIS1_EEE11__make_iterB8ne180100EPS1_, symObjAddr: 0x2540, symBinAddr: 0x1000072E0, symSize: 0x30 }
  - { offsetInCU: 0x4A11, offset: 0x144A9, size: 0x8, addend: 0x0, symName: __ZNSt3__111__wrap_iterIP20ECElevatorSimRequestEC1B8ne180100ES2_, symObjAddr: 0x2570, symBinAddr: 0x100007310, symSize: 0x34 }
  - { offsetInCU: 0x4A48, offset: 0x144E0, size: 0x8, addend: 0x0, symName: __ZNSt3__111__wrap_iterIP20ECElevatorSimRequestEC2B8ne180100ES2_, symObjAddr: 0x25A4, symBinAddr: 0x100007344, symSize: 0x20 }
  - { offsetInCU: 0x4A7F, offset: 0x14517, size: 0x8, addend: 0x0, symName: __ZNKSt3__16vectorI20ECElevatorSimRequestNS_9allocatorIS1_EEE17__annotate_shrinkB8ne180100Em, symObjAddr: 0x25EC, symBinAddr: 0x100007364, symSize: 0x14 }
...
